


      /       SPACE WAR                                                   Page 1


    1              /       SPACE WAR
    2              /
    3              /       INTERPLANETARY DEATH AND DESTRUCTION ON YOUR PDP8
    4              /
    5              /       Hardware needed:
    6              /       PDP8/e /f /m /a
    7              /       VC8E  M869/M855
    8              /       DK8EA M882
    9              /       DR8EA M863 (optional for /e /f /m to connect joysticks)
   10              /
   11              /       ORIGINAL WRITTEN BY EVAN SUITS
   12              /       MODIFIED BY ROLAND HUISMAN FOR VC8E, DK8EA, DR8EA
   13              /
   14              /       THIS VERSION WORKS OFF EITHER THE M863 DR8EA OR THE SR.
   15              /       WHEN THE PROGRAM IS STARTED (AT 0200) OR RESTARTED THE
   16              /       SR WILL BE TESTED AND IF =0000 WILL BE USED FOR THE COMMAND 
   17              /       INPUT.  OTHERWISE, THE M863 DR8EA INPUTS WILL BE USED.
   18              /
   19              /       WHEN THE PROGRAM IS STARTED THE TWO SHIPS SHOULD
   20              /       APPEAR ON THE SCREEN WITH SHIP 'ONE' ON THE LEFT, SHIP
   21              /       'TWO' ON THE RIGHT.
   22              /
   23              /       THE COMMAND WORD BIT ASSIGNMENTS ARE:
   24              /
   25              /       SR BIT: M863:   FUNCTION:
   26              /
   27              /       0               0               SHIP ONE ROTATES LEFT
   28              /       1               1               SHIP ONE ROTATES RIGHT
   29              /       2               2               SHIP ONE ACCELERATES
   30              /       3               3               SHIP ONE FIRES
   31              /
   32              /       8               4               SHIP TWO ROTATES LEFT
   33              /       9               5               SHIP TWO ROTATES RIGHT
   34              /       10              6               SHIP TWO ACCELERATES
   35              /       11              7               SHIP TWO FIRES
   36              /
   37              /
   38              /       NOTE THAT TURNING RIGHT AND LEFT SIMULTANEOUSLY THROWS
   39              /       THE SHIP INTO HYPERSPACE.  IN THE CURRENT VERSION THE ODDS
   40              /       ARE IN FAVOR OF YOUR MAKING IT BACK SAFELY.  THE GAME IS OVER
   41              /       WHEN ONE OR BOTH OF THE SHIPS HAVE BEEN DESTROYED AND THE
   42              /       WINNER (IF ANY) IS IN NORMAL SPACE.  WHEN THE WINNER
   43              /       HAS BEEN ANNOUNCED, HIT ANY TTY KEY TO RESTART.
   44              /
   45              
   46              
   47              
   48              /       SYMBOL DEFINITIONS FOR PAL8-PAL10
   49              
   50              /DK8-EA DEFINITIONS



      /       SPACE WAR                                                   Page 2


   51        6131  CLEI=6131       / ENABLE INTERRUPTS FROM M882
   52        6132  CLDI=6132       / Clear interrupt
   53        6133  CLSK=6133       / skip on CLOCK flag and clear flag
   54                      
   55              /DR8-EA DEFINITIONS
   56        6500  DBDI=6500       / Disable interrupus caused by logical ones
   57        6501  DBEI=6501       / Set interrupt enable. Gives int when IN flag is set
   58        6502  DBSK=6502       / test if IN flag is SET
   59        6503  DBCI=6503       / clear selective input register. Ones in AC clear corresponding bits
   60        6504  DBRI=6504       / transfers all input bits to AC
   61        6505  DBCO=6505       / selective clear. ones in AC cleat bits in output register
   62        6506  DBSO=6506       / Ones in AC set corresponding bits in output register
   63        6507  DBRO=6507       / Transfer output register to AC
   64              
   65              /VC8E DEFINITIONS
   66        6050  DILC=6050       / Display Logic Clear
   67        6051  DICD=6051       / Display Clear Done flag
   68        6052  DISD=6052       / wait for settling
   69        6053  DILX=6053       / Load X from AC
   70        6054  DILY=6054       / Load Y from AC
   71        6055  DIXY=6055       / intensify point
   72              
   73              
   74              
   75              
   76              
   77              /
   78              /       THIS PROGRAM RELIES ON THE PROGRAM INTERUPT FACILITY FOR
   79              /       REAL WORLD TIMING PURPOSES.
   80              /
   81              
   82        0000          *0
   83              
   84 00000  0000          0                       /EFFECTIVE JMS 0 ON PROGRAM INTERUPT
   85 00001  5402          JMP I 2                 /EXIT IMMEDIATLY TO SERVICE ROUTINE
   86 00002  0314          INTSER
   87              
   88 00003  0000  EMPTY,  0                       /THESE LOCATIONS ARE RESERVED FOR
   89 00004  0000  ODT1,   0                       /DEBUGGERS, ETC.
   90 00005  0000  ODT2,   0
   91 00006  0000  ODT3,   0
   92              
   93              /
   94              /       ALL THE AUTO INDEX REGISTERS ARE NAMED BUT NOT ALL OF
   95              /       THEM ARE USED. THE STATUS OF ANY GIVEN REGISTER CANNOT
   96              /       BE DETERMINED AT ANY TIME EXCEPT BY CAREFUL INSPECTION OF
   97              /       THE CODE.
   98              /
   99              
  100        0010          *10



      /       SPACE WAR                                                   Page 3


  101              
  102 00010  0000  AUTO10, 0
  103 00011  0000  AUTO11, 0
  104 00012  0000  AUTO12, 0
  105 00013  0000  AUTO13, 0
  106 00014  0000  AUTO14, 0
  107 00015  0000  AUTO15, 0
  108 00016  0000  AUTO16, 0
  109 00017  0000  AUTO17, 0
  110              
  111              /
  112              /       THE FOLLOWING ARE THE DATA FILES FOR THE TWO SPACE SHIPS
  113              /       AS WELL AS CERTAIN OTHER PARAMETERS FOR CALCULATING POSITIONS
  114              /       AND SO ON.  THE ORDER OF THE LOCATIONS MUST BE PRESERVED 
  115              /       ALTHOUGH THE SIZE OF THE TABLES MAY BE VARIED
  116              /
  117              
  118        0020          *20
  119              
  120 00020  0000  ONEOUT, 0                       /IF NON-ZERO CONTAINS REAMINING TIME OF EXPLOSION
  121 00021  0000  ONECNT, 0                       /NUMBER OF POINTS IN FIGURE TO BE DISPLAYED
  122 00022  0000  ONEFLG, 0                       /IN OR OUT OF NORMAL SPACE
  123 00023  0000  ONETHE, 0                       /ANGLE OF ORIENTATION ON SCREEN
  124 00024  0000  ONEVEX, 0                       /X COMPONENT OF VELOCITY
  125 00025  0000  ONEVEY, 0                       /Y COMPONENT OF VELOCITY
  126 00026  0000  ONEPEX, 0                       /X POSITION (12 BITS)
  127 00027  0000  ONEPEY, 0                       /Y POSITION (12 BITS)
  128 00030  0000  ONESIN, 0                       /SINE OF ANGLE
  129 00031  0000  ONECOS, 0                       /COSINE OF ANGLE
  130 00032  0000  ONEFIN, 0                       /SET WHEN EXPLOSION DIES OUT
  131              
  132 00033  0000  TWOOUT, 0                       /SAME CONTENT AND ORDER
  133 00034  0000  TWOCNT, 0                       /AS ABOVE
  134 00035  0000  TWOFLG, 0
  135 00036  0000  TWOTHE, 0
  136 00037  0000  TWOVEX, 0
  137 00040  0000  TWOVEY, 0
  138 00041  0000  TWOPEX, 0
  139 00042  0000  TWOPEY, 0
  140 00043  0000  TWOSIN, 0
  141 00044  0000  TWOCOS, 0
  142 00045  0000  TWOFIN, 0
  143              
  144              
  145              /
  146              /       THESE LOCATIONS ARE USED BY THE "VECTOR GENERATOR" IN 
  147              /       DISPLAYING THE FIGURES.  A FOUR DOT VECTOR WILL BE DRAWN
  148              /       FROM XONE,YONE TO XTWO,YTWO WITH STEPS OF SIZE DIXTEM,DIYTEM
  149              /
  150              



      /       SPACE WAR                                                   Page 4


  151 00046  0000  XONEDS, 0
  152 00047  0000  YONEDS, 0
  153 00050  0000  XTWODS, 0
  154 00051  0000  YTWODS, 0
  155 00052  0000  DIXTEM, 0
  156 00053  0000  DIYTEM, 0
  157 00054  0000  DISCNT, 0
  158              
  159              
  160              /
  161              /       THE NEXT LOCATIONS ARE USED BY CALPOS TO DO A FAST
  162              /       MULTIPLY TO HELP CALCULATE THE DISPLAY FILES.
  163              /
  164 00055  0000  T10SIN, 0
  165 00056  0000  T20SIN, 0
  166 00057  0000  T30SIN, 0
  167 00060  0000  T10COS, 0
  168 00061  0000  T20COS, 0
  169 00062  0000  T30COS, 0
  170              
  171 00063  0000  CALSIN, 0
  172 00064  0000  CALCOS, 0
  173              
  174              
  175              /
  176              /       NOW COME THE VARIOUS ODDS AND ENDS ONE USUALLY FINDS ON
  177              /       PAGE ZERO
  178              /
  179              
  180 00065  6400  SINE,   SINEIN
  181 00066  6463  COSINE, COSINI
  182 00067  6621  MULT,   MULTI
  183 00070  6675  RSHIFT, SHIFTR
  184 00071  1474  VECTOR, DISPLY
  185 00072  6703  CALPOS, POSCAL
  186 00073  0000  INTWRD, 0
  187 00074  0000  CLOCK,  0
  188 00075  2200  HYPER,  HYPSET
  189 00076  7000  MESOUT, CHARS
  190 00077  2510  THEADJ, THEAJI
  191 00100  2464  VEESCL, VEELIM
  192 00101  1547  ISHFT,  DISHFT
  193 00102  1717  RESET1, RESE1
  194 00103  0000  GAMOVR, 0
  195 00104  0000  ACCFLG, 0
  196 00105  7750  ACCPER, -30
  197 00106  7400  MEXP,   -400
  198              
  199 00107  0000  PROX,   0
  200 00110  0000  PROY,   0



      /       SPACE WAR                                                   Page 5


  201 00111  7420  PROLIF, -360
  202 00112  0000  BUFTMP, 0
  203 00113  7400  ONEFIL, DISBUF
  204 00114  7440  TWOFIL, DISBUF+40
  205              
  206 00115  0005  P5,     5
  207 00116  0010  P10,    10
  208 00117  0017  P17,    17
  209 00120  0020  P20,    20
  210 00121  0037  P37,    37
  211 00122  0040  P40,    40
  212 00123  0100  P100,   100
  213 00124  0132  P132,   132
  214 00125  0200  P200,   200
  215 00126  0400  P400,   400
  216 00127  0550  P550,   550
  217 00130  3777  P3777,  3777
  218              
  219 00131  7774  M4,     -4
  220 00132  7772  M6,     -6
  221 00133  7770  M10,    -10
  222 00134  7767  M11,    -11
  223 00135  7514  M264,   -264
  224 00136  7600  M200,   -200
  225 00137  7400  M400,   -400
  226 00140  7230  M550,   -550
  227 00141  1000  TwoComp, 1000
  228              
  229              
  230              /
  231              /       THE PROGRAM MAY BE STARTED OR RESTARTED AT ANYTIME AT 0200.
  232              /       THE DATA FILE ON PAGE ZERO IS CLEARED, ALL FLAGS INITIALIZED,
  233              /       AND THE SR EXAMINED.  IF THE SR=0 THE DISPLAY UPDATE ROUTINES
  234              /       ARE SET TO PICK UP THE STATUS WORD FROM THE SR.  IF THE SR
  235              /       DOES NOT EQUAL ZERO, THE STATUS WORD IS READ FROM THE EIGHT
  236              /       CONTINGENCY INPUTS ON THE BLUE RIBBON CONNECTOR OF THE AX08
  237              /       (XR OPTION ONLY).  JUMP IS THEN TO THE DISPLAY
  238              /       FILE UPDATE TO START OFF THE GAME.
  239              /
  240              
  241        0200          *200
  242              
  243 00200  7300  START,  CLA CLL                 /START OR RESTART HERE ANY OLD TIME
  244 00201  7604          LAS                             /SR
  245 00202  7650          SNA CLA
  246 00203  1312          TAD SWRD                /USE THE SR
  247 00204  1313          TAD XROPT               /USE THE BLUE RIBBON CONNECTOR
  248 00205  3254          DCA COLDST              /AND LEAVE IN THE TRAP LOCATION
  249              
  250 00206  7240  RESTRT, CLA CMA



      /       SPACE WAR                                                   Page 6


  251 00207  6503          DBCI                    /clear input register M863
  252 00210  6500          DBDI                    /disable interrupts from M863
  253 00211  7300          CLA CLL
  254              
  255 00212  1117          TAD P17                 /FIRST CLEAR THE POSITION AND DATA
  256 00213  3010          DCA AUTO10              /TABLES OF THE TWO SHIPS
  257 00214  1303          TAD TABLEN
  258 00215  3011          DCA AUTO11
  259 00216  3410          DCA I AUTO10
  260 00217  2011          ISZ AUTO11
  261 00220  5216          JMP .-2
  262              
  263 00221  1307          TAD STRT1               /SET THE STARTING POSITIONS OF THE
  264 00222  3026          DCA ONEPEX              /TWO SHIPS
  265 00223  1310          TAD STRT2
  266 00224  3041          DCA TWOPEX
  267 00225  1311          TAD STRTY
  268 00226  3027          DCA ONEPEY
  269 00227  1311          TAD STRTY
  270 00230  3042          DCA TWOPEY      
  271 00231  1121          TAD P37                 /SET TRIG FUNCTIONS JUST IN CASE
  272 00232  3031          DCA ONECOS
  273 00233  1121          TAD P37
  274 00234  3044          DCA TWOCOS              /ZERO DEGREES IS POINTING STRAIGHT UP
  275 00235  1105          TAD ACCPER              /SET COUNT FOR VELOCITY INCREASE
  276 00236  3104          DCA ACCFLG
  277 00237  3032          DCA ONEFIN              /CLEAR ALL GAME END FLAGS
  278 00240  3045          DCA TWOFIN
  279 00241  3103          DCA GAMOVR
  280 00242  4702          JMS I BUFSET            /RESET ALL PROJECTILE DISPLAY BUFFERS
  281 00243  6131          CLEI            /START UP THE M882 CLOCK
  282 00244  6042          TCF                     /CLEAR OTHER REMAINING LIKELY FLAGS
  283 00245  6022          PCF
  284 00246  6012          RRB
  285 00247  6050          DILC
  286 00250  6051          DICD
  287 00251  7200          CLA
  288 00252  5254          JMP COLDST              /AND GO TO IT
  289              
  290              
  291              /
  292              /       UPDATE IS REACHED WHENEVER THE PROGRAM IS STARTED OR THE
  293              /       CLOCK COUNT OVERFLOWS INDICATING TIME TO RECALCULATE THE
  294              /       THE DISPLAY FILES AND REFRESH THE DISPLAY.  THE INTERUPT
  295              /       COUNT IS RESTORED, THE STATUS WORD IS PICKED UP FROM EITHER
  296              /       THE SR OR BRC, AND THE RECALCULATION PROCESS BEGUN.
  297              /
  298              
  299 00253  7300  UPDATE, CLA CLL         /HERE ON CLOCK COUNT OVERFLOW.
  300                                                      /START NEXT SWEEP



      /       SPACE WAR                                                   Page 7


  301 00254  0000  COLDST, 0                       /TRAP TO READ SR OR BRC
  302 00255  7604          LAS                             /HERE FOR /SR
  303 00256  3073          DCA INTWRD              /STORE TEMPORARILY
  304 00257  1073          TAD INTWRD              /MASK OUT LEFTMOST 4 BITS
  305 00260  7012          RTR                             /FOR NUMBER ONE
  306 00261  7012          RTR
  307 00262  0305          AND LFTHAF
  308 00263  3304          DCA INTTEM              /AND STORE
  309 00264  1073          TAD INTWRD              /MASK OUT RIGHTMOST BITS FOR NUMBER TWO
  310 00265  0306          AND RYTHAF
  311 00266  1304          TAD INTTEM              /ADD TOGETHER
  312 00267  5271          JMP .+2                 /AND CONTINUE
  313              
  314 00270  6504  CODST,  DBRI            /HERE FOR BRC - PICK UP AND CLEAR
  315 00271  3073          DCA INTWRD              /CONTINUE
  316 00272  1140          TAD M550                /RESTORE INTERUPT COUNT BEFORE NEXT
  317 00273  6001          ION                             /GET READY FOR THE NEXT CYCLE
  318              /============================================================================== < RKH
  319              /       TAD ACCFLG              /ALLOW VELOCITY INCREASE THIS TIME?
  320              /       IAC                             /ONLY WHEN ACCFLG=0 (increment AC)
  321 00274  7200  CLA                                     /counter bypassed to run on 100Hz instead of 10KHz
  322              /============================================================================== < RKH
  323 00275  7540          SMA SZA                 /(skip on minus AC /skip on zero AC)
  324 00276  1105          TAD ACCPER              /IF ZERO, RESET COUNT
  325 00277  3104          DCA ACCFLG
  326              
  327 00300  5701          JMP I .+1               /NOW GET DOWN TO WORK.
  328 00301  0400          ONEUP
  329              
  330 00302  1750  BUFSET, SETBUF
  331 00303  7733  TABLEN, AUTO17-CALCOS
  332 00304  0000  INTTEM, 0
  333 00305  0360  LFTHAF, 0360
  334 00306  0017  RYTHAF, 0017
  335 00307  1000  STRT1,  1000    / X start position ship 1
  336 00310  7000  STRT2,  -1000   / X start position ship 2
  337 00311  3000  STRTY,  3000    / Y start position 
  338 00312  1510  SWRD,   2000-CODST
  339 00313  5270  XROPT,  JMP CODST
  340              
  341              
  342              /
  343              /       THIS IS THE INTERUPT SERVICE ROUTINE.  MOST OF THE
  344              /       INTERUPTS WILL BE FROM THE CRYSTAL CLOCK WHICH WILL BE
  345              /       COUNTED AND UNLESS THE COUNT OVERFLOWS THE INTERUPT IS
  346              /       DISMISSED IMMEDIATLY.  IF THE COUNT OVER FLOWS, JMP IS TO
  347              /       UPDATE WITH IOF.  
  348              /
  349              /       SPECIAL CASE IS KEYBOARD INTERUPT WHEN THE GAMOVR FLAG IS
  350              /       SET IN WHICH CASE THE GAME IS RESTARTED.  



      /       SPACE WAR                                                   Page 8


  351              /
  352              /       UNEXPECTED INTERUPTS ARE COUNTED AND AFTER ENOUGH OF THEM
  353              /       HAPPEN THE PROGRAM HALTS.  IF THIS HAPPENS RELOAD OR FIND THE
  354              /       STRANGE FLAG
  355              /
  356              
  357 00314  3345  INTSER, DCA INTACC              /HERE RIGHT AFTER INTERUPT - STORE
  358 00315  7010          RAR                             /AC AND LINK
  359 00316  3346          DCA INTLNK              /FOR POSSIBLE CONTINUATION
  360 00317  6133          CLSK                    /WAS IT THE CRYSTAL CLOCK?
  361 00320  5324          JMP INTBUS              /NO TRY SOMETHING ELSE
  362 00321  2074          ISZ CLOCK               /AND BUMP CLOCK COUNTER
  363 00322  7000          NOP                             /IGNORE OVERFLOW
  364 00323  5253          JMP UPDATE              /YES, GO TO IT
  365              
  366              
  367 00324  6031  INTBUS, KSF                     /HERE ON NON-CLOCK INTERUPT
  368 00325  5332          JMP .+5                 /NOT THE KEYBOARD
  369 00326  6032          KCC                             /CLEAR KEYBOARD FLAG
  370 00327  1103          TAD GAMOVR              /IS THE GAMEOVER
  371 00330  7440          SZA 
  372 00331  7200          CLA
  373 00332  5206          JMP RESTRT              /YES, RESTART
  374 00333  6042          TCF                             /NO, HELL WITH IT
  375 00334  2347          ISZ INTGLH              /COUNT ONE BADDIE
  376 00335  7410          SKP
  377 00336  7402          HLT                             /HALT IF TOO MANY BADDIES
  378              
  379 00337  7300  INTRET, CLA CLL         /HERE TO DISMISS THE INTERUPT
  380 00340  1346          TAD INTLNK
  381 00341  7004          RAL
  382 00342  1345          TAD INTACC
  383 00343  6001          ION
  384 00344  5400          JMP I 0
  385              
  386 00345  0000  INTACC, 0
  387 00346  0000  INTLNK, 0
  388 00347  0000  INTGLH, 0
  389              
  390              
  391              
  392              
  393              
  394              /
  395              /       NOW BEGINS THE GREAT UPDATE PROCEEDURE, FIRST FOR SHIP
  396              /       NUMBER ONE (THE DELTA SHAPED SHIP WHICH APPEARS ON
  397              /       THE LEFT AT THE START OF THE GAME).  IF ALIVE THE STATUS
  398              /       WORD (INTWRD) IS TESTED FOR REQUESTS FOR LEFT TURN,
  399              /       RIGHT TURN, THRUST ON, AND LAUNCH PROJECTILE.  THESE ACTIONS
  400              /       MAY OR MAY NOT BE ACTED UPON DEPENDING ON COUNTS AND FLAGS.



      /       SPACE WAR                                                   Page 9


  401              /       WHEN THIS IS COMPLETE THE SAME OPERATION IS PERFORMED FOR
  402              /       NUMBER TWO.
  403              /
  404              
  405        0400          *400
  406              
  407 00400  1022  ONEUP,  TAD ONEFLG              /FIRST SEE IF IT'S IN NORMAL SPACE
  408 00401  7450          SNA
  409 00402  5210          JMP ONEOK               /YES IT IS
  410 00403  7001          IAC                     /NO, BUT IS IT JUST COMING OUT?
  411 00404  7450          SNA
  412 00405  1032          TAD ONEFIN              /YES, THROW BACK IN IF ALREADY DESTROYED
  413 00406  3022          DCA ONEFLG              /OTHERWISE JUST COUNT ONE
  414 00407  5752          JMP I ITWOUP            /AND GO TO FIX UP NUMBER TWO
  415              
  416 00410  1020  ONEOK,  TAD ONEOUT              /IN NORMAL SPACE - IS IT EXPLODING?
  417 00411  7640          SZA CLA
  418 00412  5237          JMP ONEFIG              /IF YES, ALLOW NO CONTROLS
  419 00413  1045          TAD TWOFIN              /HAS THE ENEMY BEEN VANQUISHED?
  420 00414  7640          SZA CLA
  421 00415  4756          JMS I ONEWN             /YES, SIGNAL VICTORY
  422 00416  1073          TAD INTWRD              /NOW BEGIN TEST OF REQUEST
  423 00417  0354          AND OP300               /LEFT AND RIGHT TURN TOGETHER MEAN HYPERSPACE!
  424 00420  1355          TAD OM300               /TEST BITS 4 AND 5
  425 00421  7640          SZA CLA
  426 00422  5225          JMP ONELEF              /NOPE, CONTINUE
  427 00423  7040          CMA                     /YES, CALL HYPER WITH AC=-1 FOR NUMBER ONE
  428 00424  5475          JMP I HYPER
  429 00425  1073  ONELEF, TAD INTWRD              /REQUEST FOR LEFT TURN?
  430 00426  0125          AND P200                /TEST BIT 4
  431 00427  7650          SNA CLA
  432 00430  5233          JMP ONERYT              /NO
  433 00431  7340          CLA CLL CMA             /YES DECREMENT ANGLE
  434 00432  5237          JMP ONEFIG
  435              
  436 00433  1073  ONERYT, TAD INTWRD              /HOW ABOUT RIGHT TURN
  437 00434  0123          AND P100                /TEST BIT 5
  438 00435  7640          SZA CLA
  439 00436  7001          IAC                     /YES, INCREMENT ANGLE
  440              
  441 00437  1023  ONEFIG, TAD ONETHE              /PICK UP AND ADJUST ANGLE (MAYBE)
  442 00440  4477          JMS I THEADJ            /BRING BACK WITHIN LIMITS OF TRIG FUNCTIONS
  443 00441  3023          DCA ONETHE              /AND STORE
  444 00442  1023          TAD ONETHE              /FIND THEM TRIG FUNCTIONS
  445 00443  4465          JMS I SINE              /AND STORE ONCE AND FOR ALL
  446 00444  3030          DCA ONESIN              /IN THE APPROPRIATE PLACES
  447 00445  1023          TAD ONETHE
  448 00446  4466          JMS I COSINE
  449 00447  3031          DCA ONECOS
  450 00450  1020          TAD ONEOUT              /DO NOT ALLOW THRUST IF EXPLODING



      /       SPACE WAR                                                  Page 10


  451 00451  7640          SZA CLA
  452 00452  5272          JMP ONEVEL
  453              
  454              
  455              
  456 00453  1104  ONEMOV, TAD ACCFLG              /ALLOW ANY VELOCITY INCREASE THIS CYCLE?
  457 00454  7640          SZA CLA
  458 00455  5272          JMP ONEVEL              /NOPE
  459 00456  1073          TAD INTWRD              /YES, ANY REQUESTED?
  460 00457  0122          AND P40                 /TEST BIT 6
  461 00460  7650          SNA CLA
  462 00461  5272          JMP ONEVEL              /NONE REQUESTED
  463 00462  1031          TAD ONECOS              /YES, ADD IN VELOCITY INCREMENT DEPENDING 
  464 00463  1025          TAD ONEVEY              /ON ORIENTATION
  465 00464  4500          JMS I VEESCL            /BUT DO NOT ALLOW TO EXCEED MAXIMUM
  466 00465  3025          DCA ONEVEY              /AND STORE
  467 00466  1030          TAD ONESIN              /DO THE SAME FOR THE OTHER (X) COMPONENT
  468 00467  1024          TAD ONEVEX
  469 00470  4500          JMS I VEESCL
  470 00471  3024          DCA ONEVEX
  471              
  472              
  473              
  474 00472  1024  ONEVEL, TAD ONEVEX              /NOW UPDATE THE POSITION WITH THE 
  475 00473  4501          JMS I ISHFT             /VELOCITY COMPONENTS DIVIDED BY 4
  476 00474  4501          JMS I ISHFT             /THIS MAINTAINS MAXIMUM RESOLUTION
  477 00475  1026          TAD ONEPEX
  478 00476  3026          DCA ONEPEX              /IGNORE ANY OVERFLOW
  479 00477  1025          TAD ONEVEY              /DO THE SAME FOR Y COORDINATE
  480 00500  4501          JMS I ISHFT             /AND VELOCITY COMPONENT
  481 00501  4501          JMS I ISHFT
  482 00502  1027          TAD ONEPEY
  483 00503  3027          DCA ONEPEY
  484 00504  1020          TAD ONEOUT              /DO NOT ALLOW PROJECTILE LAUNCH IF
  485 00505  7640          SZA CLA                 /EXPLODING
  486 00506  5752          JMP I ITWOUP
  487              
  488              
  489              
  490 00507  1353  ONELNC, TAD LNC1FG              /OTHERWISE, SEE IF RELOAD IS FINISHED
  491 00510  7650          SNA CLA
  492 00511  5314          JMP .+3
  493 00512  2353          ISZ LNC1FG              /NO, CONTINUE RELOADING
  494 00513  5752          JMP I ITWOUP            /AND EXIT
  495 00514  1073          TAD INTWRD              /YES, READY TO LAUNCH, TRIGGER BEEN PULLED?
  496 00515  0120          AND P20                 /TEST BIT7
  497 00516  7650          SNA CLA
  498 00517  5752          JMP I ITWOUP            /NO, WAIT FOR A BETTER SHOT
  499                                              /.....I GUESS.....
  500 00520  1111          TAD PROLIF              /YES, SET CYCLE COUNT FOR THIS LAUNCH



      /       SPACE WAR                                                  Page 11


  501 00521  3416          DCA I AUTO16            /AUTO16 ALWAYS POINTS AT THE NEXT SLOT IN THE FILE
  502 00522  1024          TAD ONEVEX              /ADD SHIPS VELOCITY (SCALED OF COURSE)
  503 00523  4501          JMS I ISHFT             /TO ORIENTATION TO EXTABLISH X VELOCITY
  504 00524  4470          JMS I RSHIFT            /COMPONENT OF PROJECTILE
  505 00525  1030          TAD ONESIN
  506 00526  4470          JMS I RSHIFT            /AND STICK IT IN THE FILE
  507 00527  3416          DCA I AUTO16
  508 00530  1030          TAD ONESIN              /MOVE THE LAUNCH POINT OUTSIDE THE
  509 00531  7106          CLL RTL                 /SHIP OF ORIGIN
  510 00532  1026          TAD ONEPEX
  511 00533  3416          DCA I AUTO16            /AND STORE X POSITION
  512 00534  1025          TAD ONEVEY              /NOW DO THE SAME FOR THE Y VELOCITY AND
  513 00535  4501          JMS I ISHFT             /POSITION
  514 00536  4470          JMS I RSHIFT
  515 00537  1031          TAD ONECOS
  516 00540  4470          JMS I RSHIFT
  517 00541  3416          DCA I AUTO16
  518 00542  1031          TAD ONECOS
  519 00543  7106          CLL RTL
  520 00544  1027          TAD ONEPEY
  521 00545  3416          DCA I AUTO16
  522 00546  1136          TAD M200                /START RELOAD CYCLE
  523 00547  3353          DCA LNC1FG
  524 00550  4502          JMS I RESET1            /RESET AUTO16 TO NEXT HOLE
  525              
  526 00551  5752          JMP I .+1               /NOW TO FIX IT UP WITH NUMBER TWO
  527 00552  0600  ITWOUP, TWOUP
  528              
  529 00553  0000  LNC1FG, 0                       /PROJECTILE LAUNCH ENABLE
  530              
  531 00554  0300  OP300,  300                     /HYPERSPACE REQUEST CODE BITS 4 AND 5
  532 00555  7500  OM300,  -300
  533 00556  2522  ONEWN,  ONEWIN                  /POINTER TO VICTORY MESSAGE
  534              
  535              
  536              /
  537              /       HERE BEGINS THE UPDATE PROCEEDURE FOR SHIP NUMBER TWO.
  538              /       OPERATION IS THE SAME AS FOR NUMBER ONE ABOVE.
  539              /
  540              
  541        0600          *600
  542              
  543 00600  1035  TWOUP,  TAD TWOFLG              /FIRST SEE IF IT'S IN NORMAL SPACE
  544 00601  7450          SNA
  545 00602  5210          JMP TWOOK               /YES, CONTINUE
  546 00603  7001          IAC                     /NO, BUMP COUNT AND TEST FOR REENTRY
  547 00604  7450          SNA
  548 00605  1045          TAD TWOFIN              /IF RE-ENTERING THROW BACK OUT IF FINISHED
  549 00606  3035          DCA TWOFLG              /AND CONTINUE
  550 00607  5750          JMP I IONEST



      /       SPACE WAR                                                  Page 12


  551              
  552 00610  1033  TWOOK,  TAD TWOOUT              /HERE WHEN READY TO UPDATE IN NORMAL SPACE
  553 00611  7640          SZA CLA                 /IS IT EXPLODING?
  554 00612  5235          JMP TWOFIG              /YES DO NOT ALLOW HYPERSPACE
  555 00613  1032          TAD ONEFIN              /DID WE JUST WIN?
  556 00614  7640          SZA CLA
  557 00615  4754          JMS I TWOWN             /YES ENABLE END OF GAME MESSAGE
  558 00616  1073          TAD INTWRD              /TEST FOR HYPERSPACE REQUEST
  559 00617  0352          AND OP14
  560 00620  1353          TAD OM14                /BITS 8 AND 9 MUST BE SET
  561 00621  7650          SNA CLA
  562 00622  5475          JMP I HYPER             /8 AND 9 SET. ENTER HYPER ROUTINE WITH AC=0
  563                                              /FOR SHIP NUMBER 2
  564 00623  1073  TWOLEF, TAD INTWRD              /TEST FOR LEFT TURN - BIT 8
  565 00624  0116          AND P10
  566 00625  7650          SNA CLA
  567 00626  5231          JMP TWORYT              /NOT SET
  568 00627  7340          CLA CLL CMA             /SET, DECREMENT TWOTHE BY 1 DEGREE
  569 00630  5235          JMP TWOFIG              /SKIP TEST FOR RIGHT TURN
  570              
  571 00631  7307  TWORYT, CLA CLL IAC RTL         /TEST FOR RIGHT TURN - BIT 9
  572 00632  0073          AND INTWRD
  573 00633  7640          SZA CLA
  574 00634  7001          IAC                     /IF SET INCREMENT TWOTHE BY 1 DEGREE
  575              
  576 00635  1036  TWOFIG, TAD TWOTHE              /UPDTAE TWOTHE
  577 00636  4477          JMS I THEADJ            /BRING TO WITHIN LIMITS OF SINE,COSINE
  578 00637  3036          DCA TWOTHE              /AND STORE
  579 00640  1036          TAD TWOTHE
  580 00641  4465          JMS I SINE              /CALCULATE SINE AND COSINE FUNCTIONS
  581 00642  3043          DCA TWOSIN              /AND STORE IN DATA TABLE
  582 00643  1036          TAD TWOTHE
  583 00644  4466          JMS I COSINE
  584 00645  3044          DCA TWOCOS
  585 00646  1033          TAD TWOOUT              /DO NOT ALLOW VELOCITY CHANGE IF EXPLODING
  586 00647  7640          SZA CLA
  587 00650  5270          JMP TWOVEL
  588              
  589              
  590              
  591 00651  1104  TWOMOV, TAD ACCFLG              /NOW FOR ACCELERATION.  TEST TO SEE IF ALLOWED
  592 00652  7640          SZA CLA                 /DURING THIS UPDATE CYCLE
  593 00653  5270          JMP TWOVEL              /NOPE
  594 00654  7105          CLL IAC RAL             /YES, TEST FOR BIT 2 SET
  595 00655  0073          AND INTWRD
  596 00656  7650          SNA CLA
  597 00657  5270          JMP TWOVEL              /NOT SET
  598              
  599 00660  1043          TAD TWOSIN              /UPDATE X VELOCITY COMPONENT BY SINE OF
  600 00661  1037          TAD TWOVEX              /ANGLE OF ORIENTATION



      /       SPACE WAR                                                  Page 13


  601 00662  4500          JMS I VEESCL            /AND SCALE TO NOT EXCEED MAX
  602 00663  3037          DCA TWOVEX              /UPDATE Y COMPONENT WITH COSINE
  603              
  604 00664  1044          TAD TWOCOS
  605 00665  1040          TAD TWOVEY
  606 00666  4500          JMS I VEESCL
  607 00667  3040          DCA TWOVEY
  608              
  609              
  610              
  611 00670  1037  TWOVEL, TAD TWOVEX              /NOW UPDATE THE POSITION WITH THE VELOCITY
  612 00671  4501          JMS I ISHFT             /COMPONENTS/16
  613 00672  4501          JMS I ISHFT
  614 00673  1041          TAD TWOPEX
  615 00674  3041          DCA TWOPEX
  616 00675  1040          TAD TWOVEY
  617 00676  4501          JMS I ISHFT
  618 00677  4501          JMS I ISHFT
  619 00700  1042          TAD TWOPEY
  620 00701  3042          DCA TWOPEY
  621 00702  1033          TAD TWOOUT
  622 00703  7640          SZA CLA
  623 00704  5750          JMP I IONEST
  624              
  625              
  626              
  627 00705  1351  TWOLNC, TAD LNC2FG              /NOW CHECK FOR PROJECTILE LAUNCH. FIRST
  628 00706  7650          SNA CLA                 /TEST TO SEE IF RELOAD COMPLETE
  629 00707  5312          JMP .+3
  630 00710  2351          ISZ LNC2FG              /NO, COUNT ONE CYCLE AND EXIT
  631 00711  5750          JMP I IONEST
  632 00712  7001          IAC                     /YES, TEST TRIGGER BIT 11
  633 00713  0073          AND INTWRD
  634 00714  7650          SNA CLA
  635 00715  5750          JMP I IONEST            /NOT SET, HELL WITH IT
  636              
  637 00716  1111          TAD PROLIF              /OK, SET PROJECTILE LIFE
  638 00717  3416          DCA I AUTO16            /AUTO16 IS ALWAYS POINTING AT THE NEXT SLOT
  639 00720  1037          TAD TWOVEX              /ADD SHIPS VELOCITY
  640 00721  4501          JMS I ISHFT             /(ADJUSTED)
  641 00722  4470          JMS I RSHIFT
  642 00723  1043          TAD TWOSIN              /TO THAT OF PROJECTILE  - AGAIN X COMPONENT
  643 00724  4470          JMS I RSHIFT            /FROM SINE OF ANGLE OF ORIENTATION
  644 00725  3416          DCA I AUTO16
  645 00726  1043          TAD TWOSIN              /SET INITIAL POSITION TO BE JUST AHEAD
  646 00727  7106          CLL RTL                 /OF THE SHIP
  647 00730  1041          TAD TWOPEX              /X COMPONENT
  648 00731  3416          DCA I AUTO16
  649 00732  1040          TAD TWOVEY              /NOW THE Y COMPONENTS FROM Y VELOCITY
  650 00733  4501          JMS I ISHFT             /Y POSITION AND COSINE



      /       SPACE WAR                                                  Page 14


  651 00734  4470          JMS I RSHIFT
  652 00735  1044          TAD TWOCOS
  653 00736  4470          JMS I RSHIFT
  654 00737  3416          DCA I AUTO16
  655 00740  1044          TAD TWOCOS
  656 00741  7106          CLL RTL
  657 00742  1042          TAD TWOPEY
  658 00743  3416          DCA I AUTO16
  659 00744  1136          TAD M200
  660 00745  3351          DCA LNC2FG              /200 CYCLES OF RELOAD
  661 00746  4502          JMS I RESET1            /DRINK LEADEN DEATH, NUMBER ONE!
  662              
  663 00747  5750          JMP I .+1               /FINAL EXIT TO DISPLAY FILE CALCULATIONS
  664 00750  1000  IONEST, ONESET
  665              
  666 00751  0000  LNC2FG, 0                       /RELOAD COUNT
  667              
  668 00752  0014  OP14,   14                      /HYPERSPACE CODE
  669 00753  7764  OM14,   -14
  670 00754  2530  TWOWN,  TWOWIN
  671              
  672              
  673              /
  674              /       HERE BEGINS THE DISPLAY CALCULATIONS FOR THE TWO SHIPS.  AT
  675              /       THIS POINT ONLY THE POSITION AND ORIENTATION OF EACH VESSEL
  676              /       IS ONF INTEREST SINCE THE VELOCITY AND ALL THAT HAVE ALREADY
  677              /       BEEN TAKEN CARE OF.  FOR THE BOTH SHIPS THE DISPLAY FILES ARE
  678              /       CALCULATED AS A SERIES OF PAIRS OF X,Y COORDINATES.  BETWEEN
  679              /       EACH PAIR OF POINTS A FOUR POINT VECTOR WILL BE DRAWN.  THE
  680              /       ACTUAL COORDINATES ARE CALCULATED AS DISPLACEMENTS
  681              /       FROM THE CENTRAL PSOTION OF THE SHIP, TAKING INTO ACCOUNT THE
  682              /       ANGLE OF ORIENTATION.  THE FORMULAS FOLLOWED ARE:
  683              /
  684              /       X(POINT)=X(BASE)+X(REL)*COS[THE]+Y(REL)*SINE[THE]
  685              /
  686              /       Y(POINT)=Y(BASE)+Y(REL)*COS[THE]-X(REL)*SINE[THE]
  687              /
  688              /       WHERE SINE[THE] AND COS[THE] ARE THE FUNCTIONS OF THE
  689              /       ANGLE OF ORIENTATION, X(BASE) AND Y(BASE) ARE THE 
  690              /       COORDINATES OF THE SHIPS POSITION AND X(REL) AND Y(REL)
  691              /       CORRESPOND TO DISPLACEMENT PAIRS DEPENDING ON THE SHAPE
  692              /       OF THE FIGURE.  ALL X AND Y RELS LIE WITHIN THE RANGE 0-3 AND
  693              /       THERE FORE ALL NECESSARY DISPLACEMENTS FROM BASE COORDINATES
  694              /       MAY BE CALCULATEDFROM DIFFERENT COMBINATIONS OF T10SIN, T20COS
  695              /       ETC.  THESE VALUES ARE CALCULATED BY A CALL TO POSCAL WITH THE SINE 
  696              /       AND COSINE OF THE ANGLE OF INTEREST IN CALSIN AND CALCOS.
  697              /
  698              /       FOLLOWING THIS METHOD ANY FIGURE DESCRIBABLE WITH A 7 BY 7
  699              /       MATRIX OF POINTS MAY BE QUICKLY CALCULATED.
  700              /



      /       SPACE WAR                                                  Page 15


  701              /       BEGINNING AT ONESET DIFFERENT DISPLACEMENT PAIRS ARE CALCULATED
  702              /       AND DEPOSITIED THROUGH AUTO10 TO FORM THE DISPLAY FILE FOR SHIP NUMBER ONE.
  703              /
  704              
  705              
  706        1000          *1000
  707              
  708 01000  7300  ONESET, CLA CLL                 /BEGIN DISPLAY FILE FOR NUMBER ONE
  709 01001  1022          TAD ONEFLG              /DONT BOTHER IF NOT IN NORMAL SPACE
  710 01002  7640          SZA CLA
  711 01003  5753          JMP I ITWOST
  712 01004  1030          TAD ONESIN              /SET UP FOR MATRIX COMPONENT CALCULATIONS
  713 01005  3063          DCA CALSIN
  714 01006  1031          TAD ONECOS
  715 01007  3064          DCA CALCOS
  716 01010  4472          JMS I CALPOS            /CALL THE CALCULATOR
  717              
  718              /
  719              /       CONSIDER THE 7 BY 7 MATRIX OF DISPLACEMENT POINTS WITH THE
  720              /       CENTER AT 0,0 CORRESPONDING TO THE SHIPS POSITION.  A SERIES
  721              /       OF POINTS IS NOW DESCRIBED AROUND THIS CENTER USING THE
  722              /       MULTIPLES OF THE TRIG FUNCTIONS JUST CALCULATED
  723              /       SO THAT ANY POINT ON THE OUTLINE IS DESCRIBABLE AS X,Y
  724              /       DISPLACED BY X,Y OF THE SHIP ITSELF
  725              /
  726              
  727 01011  1113          TAD ONEFIL              /SET UP AUTO10 AS THE DISPLAY FILE
  728 01012  3010          DCA AUTO10              /POINTER
  729 01013  1026          TAD ONEPEX              /THE FIRST POINT OF THE OUTLINE IS
  730 01014  1057          TAD T30SIN
  731 01015  3410          DCA I AUTO10            /       0,3     OR TOP CENTER
  732 01016  1027          TAD ONEPEY
  733 01017  1062          TAD T30COS
  734 01020  3410          DCA I AUTO10
  735              
  736 01021  1060          TAD T10COS
  737 01022  7041          CIA                     /THE SECOND IS 
  738 01023  1026          TAD ONEPEX
  739 01024  3410          DCA I AUTO10            /       -1,0
  740 01025  1055          TAD T10SIN              /OR JUST LEFT OF DEAD CENTER
  741 01026  1027          TAD ONEPEY              /AND SO ON
  742 01027  3410          DCA I AUTO10
  743              
  744 01030  1057          TAD T30SIN
  745 01031  1062          TAD T30COS              /THE THIRD POINT IS
  746 01032  7041          CIA
  747 01033  1026          TAD ONEPEX              /       -3,-3
  748 01034  3410          DCA I AUTO10
  749 01035  1062          TAD T30COS              /OR BOTTOM LEFT HAND CORNER
  750 01036  7041          CIA



      /       SPACE WAR                                                  Page 16


  751 01037  1057          TAD T30SIN
  752 01040  1027          TAD ONEPEY
  753 01041  3410          DCA I AUTO10
  754              
  755              
  756              
  757 01042  1055          TAD T10SIN
  758 01043  7041          CIA                     /FOURTH POINT
  759 01044  1026          TAD ONEPEX
  760 01045  3410          DCA I AUTO10            /       0,-1
  761 01046  1060          TAD T10COS
  762 01047  7041          CIA                     /OR JUST BELOW CENTER
  763 01050  1027          TAD ONEPEY
  764 01051  3410          DCA I AUTO10
  765              
  766 01052  1073  FLAM1,  TAD INTWRD              /TEST FOR POWER ON. IF ON, DRAW THE
  767 01053  0122          AND P40                 /FLAME WITH AN EXTRA POINT SOME 
  768 01054  7650          SNA CLA                 /DISTANCE DIRECTLY BELOW THE SHIP
  769 01055  5321          JMP ONECON              /POWER NOT ON - CONTINUE
  770 01056  1020          TAD ONEOUT              /DO NOT ALLOW IF EXPLODING
  771 01057  7640          SZA CLA
  772 01060  5321          JMP ONECON
  773              
  774 01061  1354          TAD ONFG1               /USE ONFG1 TO TURN THE FLAME ON AND 
  775 01062  7450          SNA                     /OFF TO MAKE IT FLICKER.  DISPLAY THE
  776 01063  7344          CLA CLL CMA RAL         /FLAME ONE TIME OUT OF THREE
  777 01064  3354          DCA ONFG1
  778              
  779 01065  2354          ISZ ONFG1
  780 01066  5321          JMP ONECON              /ONE OUT OF THREE TIMES THIS WILL SKIP
  781              
  782 01067  1355          TAD ONFG2               /VARY ALSO THE LENGHT OF THE FLAME
  783 01070  7040          CMA                     /WITH LONG SHORT LONG SHORT
  784 01071  3355          DCA ONFG2
  785              
  786 01072  1355          TAD ONFG2               /TIP OF FLAME AT EITHER
  787 01073  7650          SNA CLA
  788 01074  1055          TAD T10SIN              /       0,-4    OR
  789 01075  1057          TAD T30SIN              /       0,-3
  790 01076  7041          CIA
  791 01077  1026          TAD ONEPEX
  792 01100  3410          DCA I AUTO10
  793 01101  1355          TAD ONFG2
  794 01102  7650          SNA CLA
  795 01103  1060          TAD T10COS
  796 01104  1062          TAD T30COS
  797 01105  7041          CIA
  798 01106  1027          TAD ONEPEY
  799 01107  3410          DCA I AUTO10
  800              



      /       SPACE WAR                                                  Page 17


  801 01110  1055          TAD T10SIN
  802 01111  7041          CIA
  803 01112  1026          TAD ONEPEX              /RETURN DISPLAY TO 0,-1
  804 01113  3410          DCA I AUTO10
  805 01114  1060          TAD T10COS
  806 01115  7041          CIA
  807 01116  1027          TAD ONEPEY
  808 01117  3410          DCA I AUTO10
  809 01120  7344          CLA CLL CMA RAL         /ADD -2 TO POINT COUNT
  810              
  811              
  812              
  813 01121  1132  ONECON, TAD M6                  /SET POINT COUNT TO -6 OR -8
  814 01122  3021          DCA ONECNT
  815              
  816 01123  1057          TAD T30SIN              /CONTINUE WITH DISPLAY FILE - THIS POINT
  817 01124  7041          CIA
  818 01125  1062          TAD T30COS              /       AT 3,-3
  819 01126  1026          TAD ONEPEX              / 
  820 01127  3410          DCA I AUTO10            /OR LOWER RIGHT HAND CORNER
  821 01130  1057          TAD T30SIN
  822 01131  1062          TAD T30COS
  823 01132  7041          CIA
  824 01133  1027          TAD ONEPEY
  825 01134  3410          DCA I AUTO10
  826              
  827 01135  1060          TAD T10COS              /NEXT
  828 01136  1026          TAD ONEPEX              / 
  829 01137  3410          DCA I AUTO10            /       1,0
  830 01140  1055          TAD T10SIN              / 
  831 01141  7041          CIA                     / OR JUST RIGHT OF CENTER
  832 01142  1027          TAD ONEPEY
  833 01143  3410          DCA I AUTO10
  834              
  835 01144  1057          TAD T30SIN              /FINALLY BACK TO
  836 01145  1026          TAD ONEPEX              / 
  837 01146  3410          DCA I AUTO10            /       0,3
  838 01147  1062          TAD T30COS              / 
  839 01150  1027          TAD ONEPEY              / TOP CENTE
  840 01151  3410          DCA I AUTO10
  841              
  842 01152  5753          JMP I ITWOST            /NOW FOR NUMBER TWO
  843 01153  1200  ITWOST, TWOSET
  844              
  845 01154  0000  ONFG1,  0                       /USED TO COUNT FLICKERS
  846 01155  0000  ONFG2,  0                       /SHORT OR LONG FLAG
  847              
  848              
  849              /
  850              /       HERE BEGINS THE DISPLAY FILE GENERATOR FOR SHIP TWO.



      /       SPACE WAR                                                  Page 18


  851              /       IT WORKS JUST LIKE THE ONE FOR NUMBER ONE BUT WITH
  852              /       DIFFERENT DISPLACEMENT PAIRS AND TWO EXTRA POINTS
  853              /
  854              
  855        1200          *1200
  856              
  857 01200  7300  TWOSET, CLA CLL                 /DONT BOTHER IF NOT IN NORMAL SPACE
  858 01201  1035          TAD TWOFLG
  859 01202  7640          SZA CLA
  860 01203  5775          JMP I IFILDS
  861 01204  1043          TAD TWOSIN              /SET UP TO HAVE DISPLACEMENT INCREMENTS
  862 01205  3063          DCA CALSIN              /CALCULATED
  863 01206  1044          TAD TWOCOS
  864 01207  3064          DCA CALCOS
  865 01210  4472          JMS I CALPOS
  866              
  867 01211  1114          TAD TWOFIL              /SET AUTO10 TO POINT TO SECOND DISPLAY
  868 01212  3010          DCA AUTO10              /FILE
  869 01213  1057          TAD T30SIN              /FIRST POINT AT
  870 01214  1041          TAD TWOPEX              / 
  871 01215  3410          DCA I AUTO10            /       0,3
  872 01216  1062          TAD T30COS              / 
  873 01217  1042          TAD TWOPEY              / OR TOP CENTER
  874 01220  3410          DCA I AUTO10
  875              
  876 01221  1061          TAD T20COS
  877 01222  7041          CIA
  878 01223  1056          TAD T20SIN
  879 01224  1041          TAD TWOPEX
  880 01225  3410          DCA I AUTO10
  881 01226  1056          TAD T20SIN
  882 01227  1061          TAD T20COS              /SECOND POINT
  883 01230  1042          TAD TWOPEY              /       -2,2
  884 01231  3410          DCA I AUTO10
  885              
  886 01232  1061          TAD T20COS              /THIRD POINT
  887 01233  7041          CIA                     /       -2,0
  888 01234  1041          TAD TWOPEX
  889 01235  3410          DCA I AUTO10
  890 01236  1056          TAD T20SIN
  891 01237  1042          TAD TWOPEY
  892 01240  3410          DCA I AUTO10
  893              
  894              
  895              
  896 01241  1061          TAD T20COS
  897 01242  1057          TAD T30SIN
  898 01243  7041          CIA
  899 01244  1041          TAD TWOPEX              /FOURTH POINT
  900 01245  3410          DCA I AUTO10            /       -2,-3



      /       SPACE WAR                                                  Page 19


  901 01246  1062          TAD T30COS
  902 01247  7041          CIA
  903 01250  1056          TAD T20SIN
  904 01251  1042          TAD TWOPEY
  905 01252  3410          DCA I AUTO10
  906              
  907              
  908              
  909 01253  1056          TAD T20SIN
  910 01254  7041          CIA                     /NEXT
  911 01255  1041          TAD TWOPEX              /       0,-2
  912 01256  3410          DCA I AUTO10
  913 01257  1061          TAD T20COS
  914 01260  7041          CIA
  915 01261  1042          TAD TWOPEY
  916 01262  3410          DCA I AUTO10
  917              
  918 01263  7305  FLAM2,  CLA CLL IAC RAL         /NOW THE FLAME BIT. CHECK FOR POWER ON
  919 01264  0073          AND INTWRD
  920 01265  7650          SNA CLA
  921 01266  5332          JMP TWOCON              /NO, FORGET IT
  922 01267  1033          TAD TWOOUT              /NOT ALLOWED IF EXPLODING
  923 01270  7640          SZA CLA
  924 01271  5332          JMP TWOCON
  925              
  926 01272  1376          TAD TWFG1               /SET THE 1-3 FLICKER AS WITH #1
  927 01273  7450          SNA
  928 01274  7344          CLA CLL CMA RAL
  929 01275  3376          DCA TWFG1
  930              
  931 01276  2376          ISZ TWFG1               /ALSO THE LENGHT VARIATION
  932 01277  5332          JMP TWOCON
  933              
  934 01300  1377          TAD TWFG2               /EVERY OTHER TIME LONG
  935 01301  7040          CMA
  936 01302  3377          DCA TWFG2
  937                                              /FLAME TIP AT EITHER
  938 01303  1377          TAD TWFG2               /       0,-3
  939 01304  7650          SNA CLA                 /OR
  940 01305  1056          TAD T20SIN              /       0,-5
  941 01306  1057          TAD T30SIN
  942 01307  7041          CIA
  943 01310  1041          TAD TWOPEX
  944 01311  3410          DCA I AUTO10
  945 01312  1377          TAD TWFG2
  946 01313  7650          SNA CLA
  947 01314  1061          TAD T20COS
  948 01315  1062          TAD T30COS
  949 01316  7041          CIA
  950 01317  1042          TAD TWOPEY



      /       SPACE WAR                                                  Page 20


  951 01320  3410          DCA I AUTO10
  952              
  953 01321  1056          TAD T20SIN              /NOW BACK UP TO THE SHIP
  954 01322  7041          CIA
  955 01323  1041          TAD TWOPEX
  956 01324  3410          DCA I AUTO10
  957 01325  1061          TAD T20COS
  958 01326  7041          CIA
  959 01327  1042          TAD TWOPEY
  960 01330  3410          DCA I AUTO10
  961              
  962 01331  7344          CLA CLL CMA RAL         /ADD -2 TO POINT COUNT
  963              
  964              
  965              
  966 01332  1133  TWOCON, TAD M10                 /SET POINT COUNT TO -8 OR -10
  967 01333  3034          DCA TWOCNT
  968              
  969 01334  1057          TAD T30SIN              /CONTINUE WITH DISPLAY FILE
  970 01335  7041          CIA                     /NEXT POINT AT 2,-3
  971 01336  1061          TAD T20COS
  972 01337  1041          TAD TWOPEX
  973 01340  3410          DCA I AUTO10
  974 01341  1062          TAD T30COS
  975 01342  1056          TAD T20SIN
  976 01343  7041          CIA
  977 01344  1042          TAD TWOPEY
  978 01345  3410          DCA I AUTO10
  979              
  980              
  981              
  982 01346  1061          TAD T20COS              /NEXT POINT
  983 01347  1041          TAD TWOPEX              / 
  984 01350  3410          DCA I AUTO10            /       2,0
  985 01351  1056          TAD T20SIN
  986 01352  7041          CIA
  987 01353  1042          TAD TWOPEY
  988 01354  3410          DCA I AUTO10
  989              
  990 01355  1061          TAD T20COS              /AND THE NEXT AT
  991 01356  1056          TAD T20SIN
  992 01357  1041          TAD TWOPEX              /       2,2
  993 01360  3410          DCA I AUTO10
  994 01361  1056          TAD T20SIN
  995 01362  7041          CIA
  996 01363  1061          TAD T20COS
  997 01364  1042          TAD TWOPEY
  998 01365  3410          DCA I AUTO10
  999              
 1000 01366  1057          TAD T30SIN



      /       SPACE WAR                                                  Page 21


 1001 01367  1041          TAD TWOPEX
 1002 01370  3410          DCA I AUTO10
 1003 01371  1062          TAD T30COS              /AND THE LAST AT
 1004 01372  1042          TAD TWOPEY              / 
 1005 01373  3410          DCA I AUTO10            /       0,3
 1006              
 1007 01374  5775          JMP I IFILDS            /NOW TO DISPLAY THE WHOLE MESS
 1008 01375  1400  IFILDS, FILDIS
 1009              
 1010 01376  0000  TWFG1,  0                       /FLIK THE FLAME
 1011 01377  0000  TWFG2,  0                       /LONG OR SHORT
 1012              
 1013              
 1014              /
 1015              /       HERE TO DISPLAY THE TWO SHIPS.  CHECK FIRST FOR COLLISION
 1016              /       AND THEN SET THE TWO PAIRS OF COORDENATES FOR THE END
 1017              /       POINTS AND CALL THE "VECTOR GENERATOR" TO DRAW THE DOTS
 1018              /       IN BETWEEN.  WHEN THE COUNT OVERFLOWS DO THE SAME FOR
 1019              /       NUMBER TWO.  THEN EXIT TO DISPLAY ALL THE PROJECTILES.
 1020              /
 1021              
 1022        1400          *1400
 1023              
 1024 01400  7300  FILDIS, CLA CLL                 /ALL SET TO GO
 1025 01401  4671          JMS I COLIDE            /TEST FOR COLLISION FIRST
 1026 01402  1022          TAD ONEFLG              /SKIP NUMBER ONE IF NOT IN NORMAL 
 1027 01403  7640          SZA CLA                 /SPACE
 1028 01404  5235          JMP TWODIS
 1029              
 1030 01405  1113          TAD ONEFIL              /SET UP POINTERS TO DISPLAY FILE
 1031 01406  3010          DCA AUTO10              /FOR NUMBER ONE
 1032 01407  1021          TAD ONECNT              /ALONG WITH VECTOR COUNT
 1033 01410  3011          DCA AUTO11
 1034 01411  1410          TAD I AUTO10            /SET OUT THE FIRST POINT PAIR
 1035 01412  3046          DCA XONEDS
 1036 01413  1410          TAD I AUTO10
 1037 01414  3047          DCA YONEDS
 1038 01415  1020          TAD ONEOUT              /NORMAL DISPLAY OR EXPLOSION?
 1039 01416  7640          SZA CLA
 1040 01417  5672          JMP I IONEEX            /GO ELSE WHERE FOR EXPLOSION
 1041              
 1042 01420  1410  FILONE, TAD I AUTO10            /STEP TO NEXT PAIR OF POINTS
 1043 01421  3050          DCA XTWODS              /SET X AND Y TO NEW POINT
 1044 01422  1410          TAD I AUTO10
 1045 01423  3051          DCA YTWODS
 1046 01424  4471          JMS I VECTOR            /CALL THE DOT DRAWING MACHINE
 1047 01425  2011          ISZ AUTO11
 1048 01426  7410          SKP                     /COUNT 
 1049 01427  5235          JMP TWODIS              /DO NUMBER TWO ON OVERFLOW
 1050 01430  1050          TAD XTWODS              /SWAP POINTS FOR NEXT PAIR



      /       SPACE WAR                                                  Page 22


 1051 01431  3046          DCA XONEDS
 1052 01432  1051          TAD YTWODS              /THE GENERATOR DRAWS FROM ONE
 1053 01433  3047          DCA YONEDS              /TOWARDS TWO
 1054 01434  5220          JMP FILONE
 1055              
 1056              
 1057              
 1058 01435  1035  TWODIS, TAD TWOFLG              /HERE TO DO NUMBER TWO
 1059 01436  7640          SZA CLA                 /BUT NOT IF IN HYPER SPACE
 1060 01437  5663          JMP I IPRODS
 1061              
 1062 01440  1114          TAD TWOFIL              /SET UP FILE POINTER AS IN ONE
 1063 01441  3010          DCA AUTO10
 1064 01442  1034          TAD TWOCNT              /AND THE COUNT
 1065 01443  3011          DCA AUTO11
 1066 01444  1410          TAD I AUTO10            /I SUPPOSE THIS COULD BE A SUBROUTINE TOO
 1067 01445  3046          DCA XONEDS
 1068 01446  1410          TAD I AUTO10
 1069 01447  3047          DCA YONEDS
 1070 01450  1033          TAD TWOOUT              /IS IT EXPLODING?
 1071 01451  7640          SZA CLA
 1072 01452  5673          JMP I ITWOEX            /YES, HOW EXCITING
 1073              
 1074 01453  1410  TWDLOP, TAD I AUTO10            /NO HOW DULL, STICK IN NEXT PAIR OF
 1075 01454  3050          DCA XTWODS              /POINTS
 1076 01455  1410          TAD I AUTO10
 1077 01456  3051          DCA YTWODS              /AND CALL THE VECTOR SEQUENCE
 1078 01457  4471          JMS I VECTOR
 1079 01460  2011          ISZ AUTO11
 1080 01461  5264          JMP .+3
 1081              
 1082 01462  5663          JMP I .+1               /WHEN COUNT OVERFLOWS GO ON TO 
 1083 01463  1600  IPRODS, PRODIS                  /DO THE PROJECTILE THING
 1084              
 1085 01464  1050          TAD XTWODS              /OTHERWISE SWAP ON TO THE NEXT PAIR 
 1086 01465  3046          DCA XONEDS              /OF POINTS
 1087 01466  1051          TAD YTWODS
 1088 01467  3047          DCA YONEDS
 1089 01470  5253          JMP TWDLOP
 1090              
 1091 01471  2074  COLIDE, COLLID
 1092 01472  2271  IONEEX, ONEEXP
 1093 01473  2310  ITWOEX, TWOEXP
 1094              
 1095              
 1096              /
 1097              /       THIS IS THE SO CALLED "VECTOR GENERATOR" WHICH DRAWS A 
 1098              /       SERIES OF DOTS FROM XONEDS,YONEDS TO XTWODS,YTWODS.
 1099              /       THE COORDINATE COMPONENTS ARE DIVIDED INTO FOURTHS  AND
 1100              /       FOUR DOTS DRAWN ON THE SCOPE SCREEN.  NOTE THAT NO DOT



      /       SPACE WAR                                                  Page 23


 1101              /       IS DRAWN AT XONEDS,YONEDS.  THIS IS COMPENSATED FOR ELSEWHERE.
 1102              /
 1103              
 1104              
 1105 01474  0000  DISPLY, 0                       /ENTER TO DRAW A FOUR POINT VECTOR
 1106 01475  1046          TAD XONEDS              /FROM XONEDS,YONEDS
 1107 01476  7041          CIA                     /TO XTWODS,YTWODS
 1108 01477  1050          TAD XTWODS              /DIVIDE COORDINATE DIFERENCES INTO
 1109 01500  4347          JMS DISHFT              /FOURTHS
 1110 01501  3052          DCA DIXTEM              /AND STORE INCREMENT
 1111 01502  1047          TAD YONEDS
 1112 01503  7041          CIA
 1113 01504  1051          TAD YTWODS
 1114 01505  4347          JMS DISHFT
 1115 01506  3053          DCA DIYTEM
 1116 01507  1131          TAD M4                  /FOR FOUR DOTS
 1117 01510  3054          DCA DISCNT
 1118              
 1119 01511  1046  DISLOP, TAD XONEDS              /ADD INCREMENT TO CURRENT X AND Y
 1120 01512  1052          TAD DIXTEM
 1121 01513  3046          DCA XONEDS              /NOTE THAT THIS ROUTINE DESTROYS
 1122 01514  1047          TAD YONEDS              /XONEDS AND YONEDS
 1123 01515  1053          TAD DIYTEM
 1124 01516  3047          DCA YONEDS
 1125 01517  1046          TAD XONEDS
 1126 01520  7012          RTR                     /DIVIDE BY 8 TO FIT SCREEN SIZE
 1127 01521  7010          RAR
 1128 01522  7100          CLL 
 1129 01523  7004          RAL                     // shift one bit to the left to make a 10 bit picture
 1130 01524  1141          TAD TwoComp             // make data suitable for VC8E two complement
 1131 01525  7100          CLL
 1132 01526  6053          DILX                    /SET X VALUE
 1133 01527  7200          CLA
 1134 01530  1047          TAD YONEDS              /DO THE SAME FOR Y
 1135 01531  7012          RTR
 1136 01532  7010          RAR
 1137 01533  7100          CLL
 1138 01534  7004          RAL                     // shift one bit to the left to make a 10 bit picture
 1139 01535  1141          TAD TwoComp             // make data suitable for VC8E two complement
 1140 01536  7100          CLL
 1141 01537  6054          DILY                    /SET Y VALUE
 1142              
 1143 01540  6052          DISD                    // CHECK VC8E READY
 1144 01541  5340          JMP .-1                 //
 1145 01542  6055          DIXY                    /AT LAST SOMETHING TO SEE!!
 1146 01543  7200          CLA
 1147 01544  2054          ISZ DISCNT              /DONE YET?
 1148 01545  5311          JMP DISLOP              /NOPE
 1149 01546  5674          JMP I DISPLY            /YUP
 1150              



      /       SPACE WAR                                                  Page 24


 1151              
 1152 01547  0000  DISHFT, 0                       /A GENERALIZED SHIFT ROUTINE CALLED
 1153 01550  7100          CLL                     /FROM EVERYWHERE TO DIVIDE THE
 1154 01551  7510          SPA                     /AC BY FOUR WITH AN ASR RIGHT
 1155 01552  7021          CML IAC                 /NOTE THAT NEGATIVE NUMBERS ARE
 1156 01553  7010          RAR                     /ROUNDED UPWARDS (TOWARD ZERO)
 1157 01554  7100          CLL                     /TO MAKE IT COME OUT RIGHT
 1158 01555  7510          SPA
 1159 01556  7021          CML IAC                 /EVEN SO THERE ARE SOME ROUNDING ERRORS
 1160 01557  7010          RAR                     /SOMEWHERE.  SO MUCH FOR 12 BIT MACHINES
 1161 01560  5747          JMP I DISHFT
 1162              
 1163              
 1164              /
 1165              /       HERE TO DISPLAY ALL THE PROJECTILES AND TEST FOR HITS.
 1166              /       THE PROJECTILE DISPLAY FILE IS SEARCHED FOR PROJECTILES WITH
 1167              /       NON-ZERO COUNTS AND WHEN ONE IS FOUND THE POSITION IS
 1168              /       UPDATED BY THE VELOCITY, THE POINT DISPLAYED AND TESTED FOR
 1169              /       A HIT.
 1170              /
 1171              
 1172        1600          *1600
 1173              
 1174 01600  7300  PRODIS, CLA CLL                 / BEGIN DISPLAY OF THE PROJECTILES
 1175 01601  1314          TAD BUFST               /POINT TO BEGINNING OF DISPLAY FILE
 1176 01602  3112          DCA BUFTMP
 1177              
 1178 01603  1512  PROLOP, TAD I BUFTMP            /PICK UP NEXT COUNT
 1179 01604  7450          SNA
 1180 01605  5304          JMP EXPIRE              /THIS ONE IS DEAD - GO TO THE NEXT
 1181 01606  7001          IAC                     /INCREMENT COUNT AND REPLACE
 1182 01607  3512          DCA I BUFTMP
 1183 01610  2112          ISZ BUFTMP              /BUMP POINTER TO X VELOCITY
 1184 01611  1512          TAD I BUFTMP
 1185 01612  2112          ISZ BUFTMP              /THEN TO XPOSITION AND UPDATE X POSITION
 1186 01613  1512          TAD I BUFTMP            /WITH THE VELOCITY WHICH IS CONSTANT
 1187 01614  3512          DCA I BUFTMP
 1188 01615  1512          TAD I BUFTMP
 1189 01616  3107          DCA PROX                /AND STORE X POSITION FOR DISPLAY AND TEST
 1190 01617  2112          ISZ BUFTMP              /NOW TO Y POSITION AND VELOCITY
 1191 01620  1512          TAD I BUFTMP
 1192 01621  2112          ISZ BUFTMP
 1193 01622  1512          TAD I BUFTMP            /SAME LITTLE GAME
 1194 01623  3512          DCA I BUFTMP
 1195 01624  1512          TAD I BUFTMP
 1196 01625  3110          DCA PROY                /STORE THE NEW Y VALUE
 1197              
 1198 01626  1107          TAD PROX                /DISPLAY THE POINT WITH 
 1199 01627  7012          RTR                     /THE SAME SHIFT AS FOR THE SHIPS
 1200 01630  7010          RAR                     /FOR THE SMALL SCREEN



      /       SPACE WAR                                                  Page 25


 1201 01631  7104          CLL RAL                         // shift one bit to the left to make a 10 bit picture
 1202 01632  1141          TAD TwoComp                     // make data suitable for VC8E two complement
 1203 01633  7100          CLL
 1204 01634  6053          DILX                            /SET X VALUE
 1205 01635  7200          CLA
 1206 01636  1110          TAD PROY
 1207 01637  7012          RTR                     
 1208 01640  7010          RAR
 1209 01641  7104          CLL RAL                         // shift one bit to the left to make a 10 bit picture
 1210 01642  1141          TAD TwoComp
 1211 01643  7100          CLL
 1212 01644  6054          DILY                            /SET Y VALUE
 1213 01645  6052          DISD                            // CHECK VC8E READY
 1214 01646  5245          JMP .-1                         //
 1215 01647  6055          DIXY                            /THERE IT IS!!
 1216 01650  7200          CLA
 1217 01651  4716          JMS I CHKOUT            /TEST  FOR A HIT
 1218 01652  2112          ISZ BUFTMP              /MOVE POINTER ON AND TEST FOR END
 1219 01653  1112          TAD BUFTMP              /OF BUFFER
 1220 01654  1315          TAD BUFLIM
 1221 01655  7640          SZA CLA
 1222 01656  5203          JMP PROLOP              /NOT AT END - CONTINUE
 1223              
 1224              
 1225              
 1226              
 1227              /
 1228              /       HERE AT THE END OF THE PROJECTILE DISPLAY.  IF THE GAMOVR
 1229              /       FLAG IS SET, GO ON TO THE MESSAGE DISPLAY - VICTORY LAP
 1230              /       SECTION.  OTHERWISE PICK UP THE REMAINING CLOCK COUNT
 1231              /       TO GIVE THE FANS SOMETHING TO LOOK AT, AND MOVE THE
 1232              /       ELECTRON BEAM TO A LOWER CORNER.  THE COUNT DISPLAYED
 1233              /       IN THE AC IS THE NUMBER OF 100 USEC CLOCK TICKS REMAINING
 1234              /       WHEN THIS CODE IS REACHED BEFORE THE NEXT UPDATE WOULD 
 1235              /       BEGIN.  TURNS OUT THAT ROUGHLY 2/3 OF THE CPU IS LEFT
 1236              /       OVER SHOULD ANYONE WANT TO DO ANYTHING VERY FANCY.
 1237              /
 1238              
 1239              
 1240 01657  1103  FINISH, TAD GAMOVR              /IS THIS THE VICTORY LAP OR WHAT?
 1241 01660  7640          SZA CLA
 1242 01661  5703          JMP I ENDGAM            /YES, GO TO PUT UP THE MESSAGE
 1243 01662  1137          TAD M400                /MOVE THE BEAM OFF SCREEN
 1244 01663  7100          CLL 
 1245 01664  7004          RAL                     // shift one bit to the left to make a 10 bit picture
 1246 01665  1141          TAD TwoComp             // make data suitable for VC8E two complement
 1247 01666  7100          CLL
 1248 01667  6054          DILY                    / SET Y VALUE
 1249 01670  7200          CLA 
 1250 01671  7100          CLL



      /       SPACE WAR                                                  Page 26


 1251 01672  7004          RAL                     // shift one bit to the left to make a 10 bit picture
 1252 01673  1141          TAD TwoComp             // make data suitable for VC8E two complement
 1253 01674  7100          CLL
 1254 01675  6053          DILX                    / SET X VALYE
 1255 01676  6052          DISD                    // CHECK VC8E READY
 1256 01677  5276          JMP .-1                 // CHECK VC8E READY
 1257 01700  6055          DIXY                    / SHOW IT 
 1258 01701  7041          CIA
 1259 01702  5302          JMP .
 1260              
 1261              
 1262 01703  2542  ENDGAM, JOBLOP
 1263              
 1264              
 1265              
 1266 01704  1112  EXPIRE, TAD BUFTMP              /HERE TO ADVANCE THE BUFFER
 1267 01705  1115          TAD P5                  /POINTER TO THE NEXT PROJECTILE
 1268 01706  3112          DCA BUFTMP              /UNLESS THE END
 1269 01707  1112          TAD BUFTMP              /OF THE BUFFER
 1270 01710  1315          TAD BUFLIM              /IS REACHED
 1271 01711  7640          SZA CLA                 /IN WHICH CASE
 1272 01712  5203          JMP PROLOP              /IT
 1273 01713  5257          JMP FINISH              /QUITS
 1274              
 1275 01714  7501  BUFST,  DISBUF+101
 1276 01715  0203  BUFLIM, -DISBUF-175
 1277 01716  2000  CHKOUT, CHECK
 1278              
 1279 01717  0000  RESE1,  0                       /THIS IS CALLED TO SET THE POINTER
 1280 01720  1345          TAD MRES                /(AUTO16) TO THE NEXT FREE SLOT
 1281 01721  3346          DCA RESCNT              /FOR A PROJECTILE LAUNCH. 12 POSSIBLE
 1282              
 1283 01722  1347  RESLOP, TAD RESPNT              /MOVE THE POINTER TO THE NEXT SLOT
 1284 01723  1115          TAD P5
 1285 01724  3347          DCA RESPNT
 1286 01725  1347          TAD RESPNT              /RESTE IF AT END OF BUFFER
 1287 01726  1315          TAD BUFLIM
 1288 01727  7640          SZA CLA
 1289 01730  5333          JMP RESCON
 1290 01731  1314          TAD BUFST
 1291 01732  3347          DCA RESPNT
 1292              
 1293 01733  1747  RESCON, TAD I RESPNT            /FIND A HOLE YET?
 1294 01734  7650          SNA CLA
 1295 01735  5341          JMP RESFND              /YES, SET UP AUTO16
 1296 01736  2346          ISZ RESCNT              /NO COUNT
 1297 01737  5322          JMP RESLOP              /AND TRY AGAIN
 1298 01740  7402          HLT                     /NO HOLES AT ALL?
 1299              
 1300 01741  7040  RESFND, CMA                     /BACK THE POINTER FOR AUTO INDEXING



      /       SPACE WAR                                                  Page 27


 1301 01742  1347          TAD RESPNT
 1302 01743  3016          DCA AUTO16
 1303 01744  5717          JMP I RESE1
 1304              
 1305 01745  7764  MRES,   -14
 1306 01746  0000  RESCNT, 0
 1307 01747  0000  RESPNT, 0
 1308              
 1309 01750  0000  SETBUF, 0
 1310 01751  7040          CMA                     /THIS ROUTINE IS CALLED FROM THE 
 1311 01752  1314          TAD BUFST               /STARTING SEQUENCE TO INITIALIZE ALL
 1312 01753  3016          DCA AUTO16              /THE BUFFER POINTERS AND SO ON
 1313 01754  1314          TAD BUFST
 1314 01755  3112          DCA BUFTMP
 1315 01756  1314          TAD BUFST
 1316 01757  3347          DCA RESPNT
 1317 01760  1314          TAD BUFST
 1318 01761  3371          DCA SETPNT
 1319 01762  3771  SETLOP, DCA I SETPNT
 1320 01763  2371          ISZ SETPNT
 1321 01764  1371          TAD SETPNT
 1322 01765  1315          TAD BUFLIM
 1323 01766  7640          SZA CLA
 1324 01767  5362          JMP SETLOP
 1325 01770  5750          JMP I SETBUF
 1326              
 1327 01771  0000  SETPNT, 0
 1328              
 1329              
 1330              /
 1331              /       THIS HERE NOW THING CHECKS THE COORDINATES OF THE MOST RECENTLY
 1332              /       DISPLAYED PROJECTILE AGAINST THOSE OF THE SHIPS ON THE SCREEN.
 1333              /       IF WITH A COLLISION LIMIT  A HIT IS RECORDED AND THE LIFE
 1334              /       COUNT OF THE PROJECTILE ZEROED TO REMOVE IT.  A HIT SHIP
 1335              /       IS SUITABLY FLAGGED
 1336              /
 1337              
 1338        2000          *2000
 1339              
 1340 02000  0000  CHECK,  0                       /HERE TO TEST FOR A PROJECTILE HIT
 1341 02001  1022          TAD ONEFLG              /CANT HIT SOMETHING IN HYPERSPACE
 1342 02002  7640          SZA CLA
 1343 02003  5232          JMP CHECK2
 1344 02004  1020          TAD ONEOUT              /OR SOMETHING THAT'S BEEN HIT
 1345 02005  7640          SZA CLA
 1346 02006  5232          JMP CHECK2
 1347              
 1348 02007  1107          TAD PROX                /CHECK X COORDINATES OF SHIP ONE
 1349 02010  7041          CIA                     /AND PROJECTILE
 1350 02011  1026          TAD ONEPEX              /THIS SORT OF THING IS WHY THE



      /       SPACE WAR                                                  Page 28


 1351 02012  7510          SPA                     /COORDINATES HAVE TO BE MAINTAINED TO 12
 1352 02013  7041          CIA                     /BITS
 1353 02014  1264          TAD LIMIT               /CLOSE ENOUGH?
 1354 02015  7700          SMA CLA
 1355 02016  5232          JMP CHECK2              /IF X ISN' CLOSE ENOUGH THEN NO HIT
 1356 02017  1110          TAD PROY                /X WAS CLOSE ENOUGH, HOW ABOUT Y?
 1357 02020  7041          CIA
 1358 02021  1027          TAD ONEPEY
 1359 02022  7510          SPA
 1360 02023  7041          CIA
 1361 02024  1264          TAD LIMIT
 1362 02025  7700          SMA CLA
 1363 02026  5232          JMP CHECK2              /NO HIT
 1364              
 1365 02027  1106          TAD MEXP                /DEPOSIT EXPLOSION COUNT  IN ONEOUT
 1366 02030  3020          DCA ONEOUT              /ALL THAT IS NECESSARY
 1367 02031  4265          JMS CUTOUT              /REMOVE PROJECTILE
 1368              
 1369              
 1370              
 1371 02032  1035  CHECK2, TAD TWOFLG              /NO HIT ON NUMBER ONE, TRY NUMBER TWO
 1372 02033  7640          SZA CLA
 1373 02034  5600          JMP I CHECK             /BUT NOT IF IN HYPERSPACE
 1374 02035  1033          TAD TWOOUT              /OR IF ALREADY HIT
 1375 02036  7640          SZA CLA
 1376 02037  5600          JMP I CHECK
 1377              
 1378 02040  1107          TAD PROX                /CHECK X'S FIRST
 1379 02041  7041          CIA
 1380 02042  1041          TAD TWOPEX
 1381 02043  7510          SPA                     /GET ABSOLUTE VALUE OF DIFFERENCE
 1382 02044  7041          CIA
 1383 02045  1264          TAD LIMIT               /AND TEST MAGNITUDE AGAINST PROXIMITY
 1384 02046  7700          SMA CLA                 /LIMIT
 1385 02047  5600          JMP I CHECK             /NOWHERE NEAR CLOSE
 1386              
 1387 02050  1110          TAD PROY                /NYAH, NYAH
 1388 02051  7041          CIA                     /TRY THE Y'S
 1389 02052  1042          TAD TWOPEY
 1390 02053  7510          SPA
 1391 02054  7041          CIA                     /ABSOLUTE VALUE OF DIFFERENCE
 1392 02055  1264          TAD LIMIT
 1393 02056  7700          SMA CLA
 1394 02057  5600          JMP I CHECK             /CLEAN MISS!
 1395              
 1396 02060  1106          TAD MEXP                /HIT ON TWO - END EVERYTHING BY SETTING
 1397 02061  3033          DCA TWOOUT              /TWOOUT TO NON-ZERO EXPLOSION COUNT
 1398 02062  4265          JMS CUTOUT
 1399 02063  5600          JMP I CHECK             /EXIT AFTER DESTOYING PROJECTILE
 1400              



      /       SPACE WAR                                                  Page 29


 1401 02064  7660  LIMIT,  -120                    /PROXIMITY LIMIT FOR WHAT CONSTITUTES A HIT
 1402              
 1403 02065  0000  CUTOUT, 0                       /THIS ROUTINE ZEROES OUT THE MOST RECENTLY
 1404 02066  1131          TAD M4                  /DISPLAYED PROJECTILE BY ZEROEING THE
 1405 02067  1112          TAD BUFTMP              /COUNT
 1406 02070  3273          DCA CUTPNT
 1407 02071  3673          DCA I CUTPNT
 1408 02072  5665          JMP I CUTOUT
 1409              
 1410 02073  0000  CUTPNT, 0
 1411              
 1412              
 1413              /
 1414              /       THIS ROUTINE IS CALLED TO TEST FOR A COLLISION BETWEEN THE
 1415              /       TWO SHIPS.  THE COORDINATES OF BOTH ARE COMPARED
 1416              /       AND IFF SUFFICIENTLY CLOSE BOTH ARE DESTROYED BY SETTING
 1417              /       THEIR EXPLOSION COUNTS NON-ZERO.
 1418              /
 1419              
 1420              
 1421 02074  0000  COLLID, 0                       /HERE TO TEST FOR COLLISION
 1422 02075  1022          TAD ONEFLG              /NO TEST IF EITHER SHIP IS IN
 1423 02076  7640          SZA CLA                 /HYPERSPACE OR EXPLODING
 1424 02077  5674          JMP I COLLID
 1425 02100  1035          TAD TWOFLG
 1426 02101  7640          SZA CLA
 1427 02102  5674          JMP I COLLID
 1428 02103  1020          TAD ONEOUT
 1429 02104  7640          SZA CLA
 1430 02105  5674          JMP I COLLID
 1431 02106  1033          TAD TWOOUT
 1432 02107  7640          SZA CLA
 1433 02110  5674          JMP I COLLID
 1434              
 1435 02111  1026          TAD ONEPEX              /BOTH SHIPS AVAILABLE FOR COLLISION
 1436 02112  7041          CIA                     /CHECK X COORDINATES FIRST
 1437 02113  1041          TAD TWOPEX
 1438 02114  7510          SPA                     /GET ABSOLUTE VALUE OF DIFFERENCE
 1439 02115  7041          CIA
 1440 02116  1336          TAD COLLIM              /CLOSE ENOUGH?
 1441 02117  7700          SMA CLA
 1442 02120  5674          JMP I COLLID            /NOPE, FORGET IT
 1443              
 1444 02121  1027          TAD ONEPEY              /YES, NOW TRY THE Y COORDINATES
 1445 02122  7041          CIA
 1446 02123  1042          TAD TWOPEY
 1447 02124  7510          SPA
 1448 02125  7041          CIA                     /GET MAGNITUDE ONLY
 1449 02126  1336          TAD COLLIM
 1450 02127  7700          SMA CLA                 /CLOSE ENOUGH?



      /       SPACE WAR                                                  Page 30


 1451 02130  5674          JMP I COLLID
 1452 02131  1106          TAD MEXP                /YES, SET BOTH EXPLOSION COUNTS
 1453 02132  3020          DCA ONEOUT
 1454 02133  1106          TAD MEXP
 1455 02134  3033          DCA TWOOUT
 1456 02135  5674          JMP I COLLID
 1457              
 1458 02136  7500  COLLIM, -300
 1459              
 1460              /
 1461              /       THIS ROUTINE IS CALLED TO SET ONE OF THE TWO SHIPS INTO 
 1462              /       HYPERSPACE.  ON ENTRY THE AC=-1 FOR SHIP #1, 0 FOR SHIP
 1463              /       NUMBER 2.  THE LOCATION CLOCK IS USED FOR A RANDOM
 1464              /       ADDRESS POINTER FROM WHICH WILL BE DRAWN THE 
 1465              /       VARIOUS PARAMETERS FOR REENTRY.
 1466              /
 1467              
 1468        2200          *2200
 1469              
 1470 02200  3253  HYPSET, DCA RTNFLG              /HERE WITH AC=-1 OR 0
 1471 02201  1253          TAD RTNFLG                      /SET UP LIST POINTER
 1472 02202  7640          SZA CLA
 1473 02203  1251          TAD ONEDIF                      /TO APPROPRIATE SHIP FILE
 1474 02204  1252          TAD TWOLST
 1475 02205  3015          DCA AUTO15
 1476              
 1477 02206  1074          TAD CLOCK                       /SET UP "RANDOM NUMBER GENERATOR"
 1478 02207  3017          DCA AUTO17
 1479 02210  1417          TAD I AUTO17            /PICK UP FIRST THE AMOUNT OF TIME
 1480 02211  0250          AND TIMOUT                      /OUT OF NOMAL SPACE LIMITED TO -777
 1481 02212  7041          CIA                                     /UPDATE CYCLES ( ABOUT 15 SECONDS)
 1482 02213  3415          DCA I AUTO15            /AND STORE IN ONEOUT OR TWO OUT
 1483              
 1484 02214  1417          TAD I AUTO17            /THE NEXT RANDOM NUMBER BECOMES THE
 1485 02215  4477          JMS I THEADJ            /ANGLE OR ORIENTATION ON REENTRY
 1486 02216  3415          DCA I AUTO15
 1487 02217  1417          TAD I AUTO17            /AND THE NEXT BECOMES THE X VELOCITY 
 1488 02220  4260          JMS VEESET                      /COMPONENT
 1489 02221  3415          DCA I AUTO15
 1490 02222  1417          TAD I AUTO17            /AND THEN THE Y COMPONENT
 1491 02223  4260          JMS VEESET
 1492 02224  3415          DCA I AUTO15
 1493 02225  1417          TAD I AUTO17
 1494 02226  3415          DCA I AUTO15
 1495              
 1496 02227  1417          TAD I AUTO17
 1497 02230  3415          DCA I AUTO15
 1498              
 1499 02231  1417          TAD I AUTO17            /FINALLY SEE IF RETURN WILL BE SUCCESSFLY
 1500 02232  0250          AND TIMOUT



      /       SPACE WAR                                                  Page 31


 1501 02233  1257          TAD MHYP                /ABOUT 3/4 CHANCE
 1502 02234  7700          SMA CLA
 1503 02235  5245          JMP HYPRET              /OK
 1504 02236  1253          TAD RTNFLG              /THIS IS THE ONE TIME IN FOUR.  SET
 1505 02237  7640          SZA CLA                 /UP FOR EXPLOSION ON REENTRY
 1506 02240  1251          TAD ONEDIF
 1507 02241  1256          TAD OUTLOC
 1508 02242  3260          DCA VEESET
 1509 02243  1106          TAD MEXP
 1510 02244  3660          DCA I VEESET
 1511              
 1512 02245  2253  HYPRET, ISZ RTNFLG
 1513 02246  5655          JMP I TWORTN
 1514 02247  5654          JMP I ONERTN
 1515              
 1516 02250  0777  TIMOUT, 777
 1517 02251  7765  ONEDIF, ONEFLG-TWOFLG
 1518 02252  0034  TWOLST, TWOFLG-1
 1519 02253  0000  RTNFLG, 0
 1520 02254  0600  ONERTN, TWOUP
 1521 02255  1000  TWORTN, ONESET
 1522 02256  0033  OUTLOC, TWOOUT
 1523 02257  7600  MHYP,   -200
 1524              
 1525              
 1526              
 1527 02260  0000  VEESET, 0                       /HERE TO LIMIT VELOCITY COMPONENTS
 1528 02261  7100          CLL
 1529 02262  7510          SPA                     /GET MAGNITUDE
 1530 02263  7020          CML
 1531 02264  0270          AND HM177               /LIMIT TO 177
 1532 02265  7530          SZL CLL
 1533 02266  7041          CIA
 1534 02267  5660          JMP I VEESET            /AND EXIT 
 1535              
 1536 02270  0177  HM177,  177
 1537              
 1538 02271  7300  ONEEXP, CLA CLL                 /HERE TO DISPLAY SHIP NUMBER ONE AS
 1539 02272  1023          TAD ONETHE              /AN EXPLOSION
 1540 02273  1333          TAD INCONE              /FIRST ROTATE IT BY A GOOD DOLLOP
 1541 02274  3023          DCA ONETHE
 1542 02275  4732          JMS I IXPDIS            /THEN CALL THE EXPLOSION GENERATOR
 1543 02276  2020          ISZ ONEOUT              /DONE WITH THE EXPLOSION?
 1544 02277  5727          JMP I NOWTWO            /NO, NORMAL RETURN
 1545              
 1546 02300  7001          IAC                     /YES, SET INTO PSEUDO HYPER SPACE
 1547 02301  3022          DCA ONEFLG
 1548 02302  7001          IAC                     /DISABLE RETURN FROM HYPER SPACE
 1549 02303  3032          DCA ONEFIN
 1550              



      /       SPACE WAR                                                  Page 32


 1551 02304  1045          TAD TWOFIN              /IS NUMBER TWO STILL AROUND?
 1552 02305  7650          SNA CLA
 1553 02306  5727          JMP I NOWTWO            /YES, RETURN
 1554 02307  5731          JMP I TIEUP             /NO, TIE BALL GAME
 1555              
 1556              
 1557 02310  7300  TWOEXP, CLA CLL                 /HERE TO DISPLAY SHIP NUMBER TWO 
 1558 02311  1036          TAD TWOTHE              /AS AN EXPLOSION.  BASH IT AROUND
 1559 02312  1334          TAD INCTWO
 1560 02313  3036          DCA TWOTHE
 1561 02314  4732          JMS I IXPDIS            /THEN DISPLAY IT
 1562 02315  2033          ISZ TWOOUT              /DONE WITH EXPLOSION?
 1563 02316  5730          JMP I NOWPRO            /NO, NORMAL RETURN
 1564              
 1565 02317  7001          IAC                     /YES, SEND INTO PSEUDO HYPER SPACE
 1566 02320  3035          DCA TWOFLG
 1567 02321  7001          IAC                     /DISABLE NORMAL RETURN FROM HYPERSPACE
 1568 02322  3045          DCA TWOFIN
 1569                                              /CHECK NUMBER ONE
 1570 02323  1032          TAD ONEFIN
 1571 02324  7640          SZA CLA                 /STILL ALIVE AND WELL?
 1572 02325  5731          JMP I TIEUP             /NO, TIE GAME
 1573 02326  5730          JMP I NOWPRO            /YES, CONTINUE ON
 1574 02327  1435  NOWTWO, TWODIS
 1575 02330  1600  NOWPRO, PRODIS
 1576 02331  2536  TIEUP,  NOWIN
 1577 02332  2400  IXPDIS, EXPDIS
 1578 02333  0055  INCONE, 55
 1579 02334  0055  INCTWO, 55
 1580              
 1581              
 1582              /
 1583              /       HERE TO DISPLAY THE FIGURE POINTED TO BY AUTO10 AS
 1584              /       AN EXPLOSION.  THIS WORKS THE SAME WAY AS THE NORMAL
 1585              /       DISPLAY ROUTINE EXCEPT THAT THE COORDINATE INCREMENTS
 1586              /       ARE INVERTED TURNING THE FIGURE INSIDE OUT FOR S 
 1587              /       A SORT OF CLOBBY EXPLOSION.
 1588              /
 1589              
 1590        2400          *2400
 1591              
 1592 02400  0000  EXPDIS, 0                       /HERE TO DISPLAY A FIGURE INSIDE OUT
 1593 02401  1410          TAD I AUTO10            /WITH THE POINTERS AND COUNTS ALREADY
 1594 02402  3050          DCA XTWODS              /SET UP BY FILDIS OR TWODIS
 1595 02403  1410          TAD I AUTO10            /STICK NEXT TWO POINTS INTO LINE
 1596 02404  3051          DCA YTWODS
 1597              
 1598 02405  1050          TAD XTWODS
 1599 02406  7041          CIA                     /CALCULATE INCREMENT THE WRONG WAY
 1600 02407  1046          TAD XONEDS



      /       SPACE WAR                                                  Page 33


 1601 02410  3052          DCA DIXTEM              /AND STORE
 1602 02411  1051          TAD YTWODS
 1603 02412  7041          CIA
 1604 02413  1047          TAD YONEDS
 1605 02414  3053          DCA DIYTEM              /SAME FOR Y
 1606              
 1607 02415  1131          TAD M4                  /4 DOTS IN THE VECTOR"
 1608 02416  3054          DCA DISCNT              /COULD HAVE CALLED THE OTHER 
 1609                                              /VECTOR GENERATOR I SUPPOSE
 1610 02417  1046  EXPLOP, TAD XONEDS
 1611 02420  1052          TAD DIXTEM              /ADD X AND Y INCREMENTS TO THE RUNNING
 1612 02421  3046          DCA XONEDS              /TOTALS AND DISPLAY THE RUNNING
 1613 02422  1047          TAD YONEDS              /TOTALS NORMAL SIZE
 1614 02423  1053          TAD DIYTEM
 1615 02424  3047          DCA YONEDS
 1616              
 1617 02425  1046          TAD XONEDS
 1618 02426  7012          RTR                     /COULD MAKE TWICE AS BIG BY NOP-ING
 1619 02427  7010          RAR                     /THE RAR'S BUT THE SCREEN IS SMALL ENOUGH
 1620 02430  7100          CLL 
 1621 02431  7004          RAL                     // shift one bit to the left to make a 10 bit picture
 1622 02432  1141          TAD TwoComp             // make data suitable for VC8E two complement
 1623 02433  7100          CLL
 1624 02434  6053          DILX                    / SET X POSITION
 1625 02435  7200          CLA
 1626 02436  1047          TAD YONEDS
 1627 02437  7012          RTR
 1628 02440  7010          RAR
 1629 02441  7100          CLL 
 1630 02442  7004          RAL                     // shift one bit to the left to make a 10 bit picture
 1631 02443  1141          TAD TwoComp             // make data suitable for VC8E two complement
 1632 02444  7100          CLL
 1633 02445  6054          DILY                    / SET Y POSITION
 1634 02446  6052          DISD                    // CHECK VC8E READY
 1635 02447  5246          JMP .-1                 //
 1636 02450  6055          DIXY                    / DISPLAY DATA
 1637 02451  7200          CLA
 1638 02452  2054          ISZ DISCNT              /DONE 4 DOTS?
 1639 02453  5217          JMP EXPLOP              /NO
 1640              
 1641 02454  2011          ISZ AUTO11              /DONE ALL VECTORS IN THE FILE?
 1642 02455  7410          SKP
 1643 02456  5600          JMP I EXPDIS            /YES, EXIT
 1644              
 1645 02457  1050          TAD XTWODS              /NO SWAP TO NEXT PAIR OF POINTS
 1646 02460  3046          DCA XONEDS
 1647 02461  1051          TAD YTWODS
 1648 02462  3047          DCA YONEDS
 1649 02463  5201          JMP EXPDIS+1
 1650              



      /       SPACE WAR                                                  Page 34


 1651              
 1652              
 1653              /
 1654              /       VEELIM IS THE SCALING ROUTINE FOR VELOCITY COMPONENTS.
 1655              /       THE COMPONENTS ARE SCALED TO REMAIN IN THE RANGE 140
 1656              /       TO -140.  THIS IS NECESSARY TO AVOID ASTRONOMICAL SPPED
 1657              /       BUILDUP ON THE SMALL SCREEN.  UNFORTUNATELY THE X AND Y
 1658              /       COMPONENTS ARE SCALED SEPARATELY WHICH GIVES SLIGHT BUT
 1659              /       NOTICABLE DISTORTIONS IN DIAGONAL FLIGHT PATHS.  IN THE
 1660              /       NORMAL HEAT OF THE BATTLE NO ONE WILL REALLY NOTICE.
 1661              /
 1662              
 1663              
 1664 02464  0000  VEELIM, 0                       /ENTER TO SCALE VELOCITY HELD IN
 1665 02465  3305          DCA VEEHLD              /AC
 1666 02466  1305          TAD VEEHLD
 1667 02467  7500          SMA                     /BRANCH FOR POSITIVE OR NEGATIV
 1668 02470  5276          JMP VEEPOS
 1669 02471  1307          TAD VEEMAX
 1670 02472  7700          SMA CLA                 /GREATER THAN MAXIMUM POSITIVE?
 1671 02473  5303          JMP VEECLR              /NO
 1672 02474  1306          TAD VEEMIN              /I MEAN MAXIMUM NEGATIVE - YES SET
 1673 02475  5664          JMP I VEELIM            /TO MAX NEGATIV
 1674              
 1675 02476  1306  VEEPOS, TAD VEEMIN              /GREATER THAN MAX?
 1676 02477  7710          SPA CLA
 1677 02500  5303          JMP VEECLR              /NO
 1678 02501  1307          TAD VEEMAX              /YES SET TO MAX
 1679 02502  5664          JMP I VEELIM
 1680              
 1681 02503  1305  VEECLR, TAD VEEHLD              /IT WAS IN RANGE ALL ALONG
 1682 02504  5664          JMP I VEELIM
 1683              
 1684 02505  0000  VEEHLD, 0
 1685 02506  7640  VEEMIN, -140
 1686 02507  0140  VEEMAX, 140
 1687              
 1688 02510  0000  THEAJI, 0                       /HERE TO ADJUST THE ANGLE TO A RANGE
 1689 02511  7500          SMA                     /0-550 OR 0-360 DEGREES.  THIS IS
 1690 02512  5315          JMP .+3                 /NECESSARY TO INSURE THAT PUSHDOWN OVERFLOW
 1691 02513  1127          TAD P550                /WILL NOT HAPPEN IN THE SINE AND COSINE
 1692 02514  5311          JMP .-3                 /ROUTINES.  THIS SIMPLY TAKES THE AC 
 1693 02515  1140          TAD M550                /MODULO 360 AND EXITS
 1694 02516  7500          SMA
 1695 02517  5315          JMP .-2
 1696 02520  1127          TAD P550                /FOLLOW IT THROUGH AND SEE IF IT DOESN'T
 1697 02521  5710          JMP I THEAJI
 1698              
 1699              
 1700              /



      /       SPACE WAR                                                  Page 35


 1701              /       ONE OF THESE ROUTINE IS ENTERED WHEN A WINNER IS DECLARED.
 1702              /       THE ADDRESS OF THE VICTORY MESSAGE IS PLACED IN MESS AND 
 1703              /       THE GAMOVR FLAG SET TO CAUSE A BRANCH TO JOBLOP WHEN THE
 1704              /       DISPLAY CYCLE IS COMPLETED.  THE ROUTINE WILL THEN DISPLAY
 1705              /       THE APPROPRIATE MESSAGE OVER THE REMAINING SHIPS IF
 1706              /       ANY UNTIL THE KEYBOARD IS MOLESTED OR THE CLOCK RUNS OUT
 1707              /       AND THE NEXT DISPLAY UPDATE CYCLE IS SET.   AT ANY RATE THE
 1708              /       PROGRAM WILL REACH HERE ONLY WHEN SOMEONE HAS BITTEN THE
 1709              /       INTERGALACTIC DUST.
 1710              /
 1711              
 1712              
 1713 02522  0000  ONEWIN, 0                       /THIS IS CALLED WHEN TWOFIN IS SET
 1714 02523  1355          TAD MES1                /AND ONE FIN IS NOT.  SET ONE TO VICTOR
 1715 02524  3362          DCA MESS                /AND SET GAMOVR FLAG
 1716 02525  7001          IAC
 1717 02526  3103          DCA GAMOVR
 1718 02527  5722          JMP I ONEWIN            /THEN RETURN TO UPDATE CYCLE
 1719              
 1720 02530  0000  TWOWIN, 0                       /THIS IS CALLED WHEN ONEFIN IS SET
 1721 02531  1356          TAD MES2                /AND TWO FIN IS NOT
 1722 02532  3362          DCA MESS                /SET ALSO GAMOVR
 1723 02533  7001          IAC
 1724 02534  3103          DCA GAMOVR
 1725 02535  5730          JMP I TWOWIN
 1726              
 1727 02536  1360  NOWIN,  TAD MES4                /GET HERE WHEN BOTH ONEFIN AND TWOFIN
 1728 02537  3362          DCA MESS                /ARE SET .
 1729 02540  7001          IAC
 1730 02541  3103          DCA GAMOVR              /NOBODY EVER REALLY WINDS
 1731                                              /UP THE WINNER IN THESE THINGS
 1732 02542  0000  JOBLOP, 0                       /THIS IS ENTERED FROM FINISH WHEN
 1733 02543  1354          TAD MES0                /GAMOVR IS SET AND SERVES TO DISPLAY
 1734 02544  4476          JMS I MESOUT            /THE VICTORY MESSAGE ON THE SCREEN
 1735 02545  1362          TAD MESS                /USING THE CHARACTER GENERATOR SOMEWHAT
 1736 02546  4476          JMS I MESOUT            /FURTHER ON UNTIL THE GAME IS RESTARTED
 1737 02547  1361          TAD MES5                /OR UNTIL THE INTERRUPT COUNT OVERFLOWS
 1738 02550  4476          JMS I MESOUT            /AND THE UPDATE CYCLE IS RESTARTED
 1739 02551  1357          TAD MES3
 1740 02552  4476          JMS I MESOUT
 1741 02553  5342  FINITO, JMP JOBLOP
 1742              
 1743 02554  7344  MES0,   MESS0
 1744 02555  7351  MES1,   MESS1
 1745 02556  7353  MES2,   MESS2
 1746 02557  7355  MES3,   MESS3
 1747 02560  7360  MES4,   MESS4
 1748 02561  7345  MES5,   MESS5
 1749 02562  0000  MESS,   0
 1750              



      /       SPACE WAR                                                  Page 36


 1751              
 1752              /
 1753              /       THE FOLLOWING ARE THE SINE AND COSINE ROUTINES CUSTOMIZED
 1754              /       FOR THIS PROGRAM FROM ANOTHER I WORKED ON.  CALL EITHER
 1755              /       SINE OR COSINE WITH ANGLE IN DEGREES IN AC.  THE ARGUEMENT
 1756              /       IS REDUCED THROUGH RECURSION UNTIL BETWEEN 0-89 DEGREES 
 1757              /       AND THEN A TABLE LOOKUP DONE TO OBTAIN THE VALUE.  IT TAKES
 1758              /       UP A FAIR AMOUNT OF SPACE BUT IT WORKS JUST FASTER
 1759              /       THAN SHEEP.  THE COSINE CALL JUST TRANSFORMS THE ARGUEMENT 
 1760              /       THROUGH SOME TRIGONOMETRIC GARBAGE AND CALLS THE SINE
 1761              /       ROUTINE.  NOTE THAT CALLING EITHER ROUTINE WITH TOO 
 1762              /       LARGE AN ARGUEMENT WILL CAUSE PUSHDOWN OVERFLOW AND THEN
 1763              /       ALL HELL WILL BREAK LOOSE.  THE ORIGINAL ROUTINE FROM WHICH
 1764              /       THIS WAS STOLEN HAD FULL WORD PRECISION.
 1765              /
 1766              
 1767        6400          *6400
 1768              
 1769 06400  0000  SINEIN, 0                       /I REALLY CANT BRING MYSELF TO COMMENT
 1770 06401  3252          DCA SINARG              /THIS.  IT'S VERY STRAIGHFORWARD
 1771 06402  1200          TAD SINEIN
 1772 06403  3653          DCA I SINPSH
 1773 06404  2253          ISZ SINPSH
 1774 06405  1252          TAD SINARG
 1775 06406  7440          SZA 
 1776 06407  5217          JMP SINNG2
 1777              
 1778 06410  7340  SINPOP, CLA CLL CMA
 1779 06411  1253          TAD SINPSH
 1780 06412  3253          DCA SINPSH
 1781 06413  1653          TAD I SINPSH
 1782 06414  3200          DCA SINEIN
 1783 06415  1252          TAD SINARG
 1784 06416  5600          JMP I SINEIN
 1785              
 1786 06417  7500  SINNG2, SMA
 1787 06420  5226          JMP SINPOS
 1788 06421  7041          CIA
 1789 06422  4200          JMS SINEIN
 1790              
 1791 06423  7041  SINNEG, CIA
 1792 06424  3252          DCA SINARG
 1793 06425  5210          JMP SINPOP
 1794              
 1795 06426  1135  SINPOS, TAD M264
 1796 06427  7510          SPA
 1797 06430  5232          JMP .+2
 1798 06431  5222          JMP SINNEG-1
 1799 06432  1124          TAD P132
 1800 06433  7510          SPA



      /       SPACE WAR                                                  Page 37


 1801 06434  5244          JMP SINELK
 1802 06435  7640          SZA CLA
 1803 06436  5241          JMP .+3
 1804 06437  1121          TAD P37
 1805 06440  5224          JMP SINNEG+1
 1806              
 1807 06441  1252          TAD SINARG
 1808 06442  1135          TAD M264
 1809 06443  5222          JMP SINNEG-1
 1810              
 1811 06444  1124  SINELK, TAD P132
 1812 06445  1262          TAD SINTAB
 1813 06446  3200          DCA SINEIN
 1814 06447  1600          TAD I SINEIN
 1815 06450  3252          DCA SINARG
 1816 06451  5210          JMP SINPOP
 1817              
 1818              
 1819              
 1820 06452  0000  SINARG, 0
 1821 06453  6454  SINPSH, SINLST
 1822 06454  0000  SINLST, 0
 1823 06455  0000          0
 1824 06456  0000          0
 1825 06457  0000          0
 1826 06460  0000          0
 1827 06461  0000          0
 1828              
 1829 06462  6467  SINTAB, SINES-1
 1830              
 1831 06463  0000  COSINI, 0
 1832 06464  7041          CIA
 1833 06465  1124          TAD P132
 1834 06466  4200          JMS SINEIN
 1835 06467  5663          JMP I COSINI
 1836              
 1837              
 1838              
 1839 06470  0000  SINES,  00      /1
 1840 06471  0001          01      /2
 1841 06472  0001          01      /3
 1842 06473  0002          02      /4
 1843 06474  0002          02      /5
 1844 06475  0003          03      /6
 1845 06476  0003          03      /7
 1846 06477  0004          04      /8
 1847 06500  0005          05      /9
 1848 06501  0005          05      /10
 1849 06502  0006          06      /11
 1850 06503  0006          06      /12



      /       SPACE WAR                                                  Page 38


 1851 06504  0007          07      /13
 1852 06505  0007          07      /14
 1853 06506  0010          10      /15
 1854 06507  0010          10      /16
 1855 06510  0011          11      /17
 1856 06511  0011          11      /18
 1857 06512  0012          12      /19
 1858 06513  0012          12      /20
 1859 06514  0013          13      /21
 1860 06515  0013          13      /22
 1861 06516  0014          14      /23
 1862 06517  0015          15      /24
 1863 06520  0015          15      /25
 1864 06521  0016          16      /26
 1865 06522  0016          16      /27
 1866 06523  0017          17      /28
 1867 06524  0017          17      /29
 1868 06525  0020          20      /30
 1869 06526  0020          20      /31
 1870 06527  0020          20      /32
 1871 06530  0021          21      /33
 1872 06531  0021          21      /34
 1873 06532  0022          22      /35
 1874 06533  0022          22      /36
 1875 06534  0023          23      /37
 1876 06535  0023          23      /38
 1877 06536  0024          24      /39
 1878 06537  0024          24      /40
 1879 06540  0025          25      /41
 1880 06541  0025          25      /42
 1881 06542  0025          25      /43
 1882 06543  0026          26      /44
 1883 06544  0026          26      /45
 1884 06545  0027          27      /46
 1885 06546  0027          27      /47
 1886 06547  0027          27      /48
 1887 06550  0030          30      /49
 1888 06551  0030          30      /50
 1889 06552  0030          30      /51
 1890 06553  0031          31      /52
 1891 06554  0031          31      /53
 1892 06555  0031          31      /54
 1893 06556  0032          32      /55
 1894 06557  0032          32      /56
 1895 06560  0032          32      /57
 1896 06561  0033          33      /58
 1897 06562  0033          33      /59
 1898 06563  0033          33      /60
 1899 06564  0033          33      /61
 1900 06565  0034          34      /62



      /       SPACE WAR                                                  Page 39


 1901 06566  0034          34      /63
 1902 06567  0034          34      /64
 1903 06570  0035          35      /65
 1904 06571  0035          35      /66
 1905 06572  0035          35      /67
 1906 06573  0035          35      /68
 1907 06574  0035          35      /69
 1908 06575  0036          36      /70
 1909 06576  0036          36      /71
 1910 06577  0036          36      /72
 1911 06600  0036          36      /73
 1912 06601  0036          36      /74
 1913 06602  0036          36      /75
 1914 06603  0037          37      /76
 1915 06604  0037          37      /77
 1916 06605  0037          37      /78
 1917 06606  0037          37      /79
 1918 06607  0037          37      /80
 1919 06610  0037          37      /81
 1920 06611  0037          37      /82
 1921 06612  0037          37      /83
 1922 06613  0037          37      /84
 1923 06614  0037          37      /85
 1924 06615  0037          37      /86
 1925 06616  0037          37      /87
 1926 06617  0037          37      /88
 1927 06620  0037          37      /89
 1928              
 1929              
 1930              
 1931 06621  0000  MULTI,  0                       /THIS IS STANDARD SINGLE PRECISION
 1932 06622  7100          CLL                     /MULTIPLY ROUTINE WHICH WAS ONCE
 1933 06623  7510          SPA                     /USED.  I'VE LEFT IT IN SINCE
 1934 06624  7061          CMA CML IAC             /THERE IS LOTS OF CORE LEFT OVER AND
 1935 06625  3271          DCA MULMP1              /MAYBLE SOMEDAY I'LL NEED IT TO PUT
 1936 06626  3272          DCA MULMP5              /IN A SUN OR SOMETHING.  THIS IS THE
 1937 06627  1621          TAD I MULTI             /STANDARD DEC SUBROUTINE WITH DIFFERENT
 1938 06630  7450          SNA                     /LABELS
 1939 06631  5255          JMP MULPSN+2
 1940 06632  7510          SPA
 1941 06633  7061          CMA CML IAC
 1942 06634  3273          DCA MULMP2
 1943 06635  1270          TAD MULTHR
 1944 06636  3274          DCA MULMP3
 1945              
 1946 06637  1271  MULMP4, TAD MULMP1
 1947 06640  7010          RAR
 1948 06641  3271          DCA MULMP1
 1949 06642  1272          TAD MULMP5
 1950 06643  7430          SZL



      /       SPACE WAR                                                  Page 40


 1951 06644  1273          TAD MULMP2
 1952 06645  7110          CLL RAR
 1953 06646  3272          DCA MULMP5
 1954 06647  2274          ISZ MULMP3
 1955 06650  5237          JMP MULMP4
 1956 06651  1271          TAD MULMP1
 1957 06652  7010          RAR
 1958 06653  7430  MULPSN, SZL
 1959 06654  5261          JMP MULCMP
 1960 06655  3271          DCA MULMP1
 1961 06656  1272          TAD MULMP5
 1962 06657  2221  MULMPZ, ISZ MULTI
 1963 06660  5621          JMP I MULTI
 1964              
 1965 06661  7141  MULCMP, CMA CLL IAC
 1966 06662  3271          DCA MULMP1
 1967 06663  1272          TAD MULMP5
 1968 06664  7040          CMA
 1969 06665  7430          SZL
 1970 06666  7001          IAC
 1971 06667  5257          JMP MULMPZ
 1972              
 1973 06670  7764  MULTHR, 7764
 1974 06671  0000  MULMP1, 0
 1975 06672  0000  MULMP5, 0
 1976 06673  0000  MULMP2, 0
 1977 06674  0000  MULMP3, 0
 1978              
 1979              
 1980              /
 1981              /       SHIFTR DIVIDES THE AC BY TWO WHETHER POSITIVE OR NEGATIVE
 1982              /       AND IS CALLED FROM VARIOUS PLACES.   NOT ENTIRELY MYSTERIOUS
 1983              /
 1984              
 1985              
 1986 06675  0000  SHIFTR, 0
 1987 06676  7100          CLL
 1988 06677  7510          SPA
 1989 06700  7021          CML IAC
 1990 06701  7010          RAR
 1991 06702  5675          JMP I SHIFTR
 1992              
 1993              
 1994              /
 1995              /       POSCAL IS CALLED TO CALCULATE THE COORDINATE INCREMENTS
 1996              /       NECESSARY TO PRODUCE THE SHIP FIGURES.  RATHER THAN DOING
 1997              /       A LOT OF EXPENSIVE MATH THIS DOES A QUICK PRODUCTION
 1998              /       OF 1, 2, AND 3 TIMES THE SIN AND COSINE VALUES FOUND
 1999              /       IN CALSIN AND CALCOS LEAVING THEM IN THE TABLE FOR
 2000              /       ONESET AND TWOSET.  IF THE SCOPE WERE ANY BETTER



      /       SPACE WAR                                                  Page 41


 2001              /       THIS PROBABLY WOULDN'T BE NEAR GOOD ENOUGH BUT....
 2002              /
 2003              
 2004 06703  0000  POSCAL, 0
 2005 06704  1063          TAD CALSIN
 2006              
 2007 06705  3055          DCA T10SIN
 2008 06706  1055          TAD T10SIN
 2009 06707  7104          CLL RAL
 2010 06710  3056          DCA T20SIN
 2011 06711  1055          TAD T10SIN
 2012 06712  1056          TAD T20SIN
 2013 06713  3057          DCA T30SIN
 2014              
 2015 06714  1064          TAD CALCOS
 2016              
 2017 06715  3060          DCA T10COS
 2018 06716  1060          TAD T10COS
 2019 06717  7104          CLL RAL
 2020 06720  3061          DCA T20COS
 2021 06721  1060          TAD T10COS
 2022 06722  1061          TAD T20COS
 2023 06723  3062          DCA T30COS
 2024 06724  5703          JMP I POSCAL
 2025              
 2026              
 2027        7000          *7000
 2028              
 2029              /GENERAL PURPOSE SYMBOL GENERATOR
 2030              /
 2031 07000  0000  CHARS,  0       /ENTRY TO PLOT CHARACTER STRING
 2032 07001  3335          DCA ADDR        /STORE STRING ADDRESS
 2033 07002  1735          TAD I ADDR      /FETCH DOUBLE CHARACTER
 2034 07003  7012          RTR     /SHIFT
 2035 07004  7012          RTR     /       FOR FIRST
 2036 07005  7012          RTR     /       CHARACTER
 2037 07006  4216          JMS CHAR        /PLOT CHARACTER
 2038 07007  7410          SKP     /NORMAL RETURN -- SKIP
 2039 07010  5600          JMP I CHARS     /TERMINATION RETURN -- EXIT
 2040 07011  1735          TAD I ADDR      /RECALL DOUBLE CHARACTER
 2041 07012  2335          ISZ ADDR        /ADVANCE STRING ADDRESS
 2042 07013  4216          JMS CHAR        /PLOT CHARACTER
 2043 07014  5202          JMP CHARS+2     /NORMAL RETURN -- REPEAT
 2044 07015  5600          JMP I CHARS     /TERMINATION RETURN -- EXIT
 2045              /
 2046 07016  0000  CHAR,   0       /ENTRY TO PLOT SINGLE CHARACTER
 2047 07017  0341          AND K77 /MASK OUT UPPER BITS
 2048 07020  7104          CLL RAL /MULTIPLY CODE BY TWO
 2049 07021  1343          TAD TABLE       /ADD TABLE BASE ADDRESS
 2050 07022  3342          DCA POINT       /CONSTRUCT POINTER TO 24-BIT CODE



      /       SPACE WAR                                                  Page 42


 2051 07023  7040          CMA     /INITIALIZE COUNTER FOR
 2052 07024  3337          DCA COUNT2      /       TWO PLOT WORDS
 2053 07025  1742          TAD I POINT     /FETCH FIRST PLOT WORD
 2054 07026  2342          ISZ POINT       /INCREMENT POINTER FOR NEXT ONE
 2055 07027  7450          SNA     /SKIP IF NOT SPECIAL CHARACTER
 2056 07030  5301          JMP SPCHAR      /ELSE GO PROCESS IT
 2057 07031  3334          DCA CURPLT      /SAVE CURRENT PLOT BITS
 2058 07032  1340  XPLOT,  TAD KM6 /INITIALIZE 6-BIT
 2059 07033  3336          DCA COUNT6      /       COUNTER
 2060 07034  1330          TAD YVALUE      /RESET Y TEMPORARY
 2061 07035  3333          DCA YTEMP       /       VALUE FOR CHARACTER
 2062 07036  1327          TAD XVALUE      /OUTPUT CURRENT
 2063 07037  7100          CLL 
 2064 07040  6053          DILX    /       X-VALUE TO CRT
 2065 07041  1331          TAD XINCR       /INCREMENT
 2066 07042  3327          DCA XVALUE      /       ABSCISSA
 2067 07043  1334          YPLOT,  TAD CURPLT      /RECALL CURRENT PLOT BITS
 2068 07044  7104          CLL RAL /GET NEXT BIT
 2069 07045  3334          DCA CURPLT      /SAVE REMAINING PLOT BITS
 2070 07046  7420          SNL     /SKIP IF POINT TO PLOT
 2071 07047  5262          JMP CNTINU      /ELSE JUMP AHEAD
 2072 07050  1333          TAD YTEMP       /OUTPUT CURRENT
 2073 07051  7100          CLL 
 2074 07052  6054          DILY /  Y-VALUE TO CRT
 2075 07053  6052          DISD            // CHECK VC8E READY
 2076 07054  5253          JMP     .-1     //
 2077 07055  6055          DIXY    / show it
 2078 07056  7300          CLA CLL /CLEAR AC
 2079 07057  1334          TAD CURPLT      /RECALL CURRENT PLOT BITS
 2080 07060  7650          SNA CLA /SKIP IF POINTS REMAINING
 2081 07061  5270          JMP WRDEND      /ELSE WORD IS FINISHED
 2082 07062  1333  CNTINU, TAD YTEMP       /INCREMENT TEMPORARY
 2083 07063  1332          TAD YINCR       /       Y-VALUE FOR NEXT
 2084 07064  3333          DCA YTEMP       /       CHARACTER STEP
 2085 07065  2336          ISZ COUNT6      /SKIP IF 6 BITS PLOTTED
 2086 07066  5243          JMP YPLOT       /ELSE PLOT NEXT ONE
 2087 07067  5232          JMP XPLOT       /GO UPDATE X-VALUE
 2088 07070  2337  WRDEND, ISZ COUNT2      /SKIP IF ANOTHER BIT WORD
 2089 07071  5275         JMP EXIT        /ELSE EXIT
 2090 07072  1742          TAD I POINT     /FETCH SECOND BIT WORD
 2091 07073  7440          SZA     /SKIP IF NO PLOT POINTS
 2092 07074  5231          JMP XPLOT-1     /ELSE GO PLOT THEM
 2093 07075  1327  EXIT,   TAD XVALUE      /INCREMENT ABSCISSA
 2094 07076  1331          TAD XINCR       /       FOR SPACE BETWEEN
 2095 07077  3327          DCA XVALUE      /       SYMBOLS
 2096 07100  5616          JMP I CHAR      /EXIT FROM CHAR
 2097              /
 2098 07101  1742  SPCHAR, TAD I POINT     /FETCH TRANSFER VECTOR
 2099 07102  3342          DCA POINT       /STORE AS INDIRECT ADDRESS
 2100 07103  5742         JMP I POINT     /GO TO APPROPRIATE ROUTINE



      /       SPACE WAR                                                  Page 43


 2101 07104  1331  SPACE,  TAD XINCR       /FETCH BASIC ABSCISSA INCREMENT
 2102 07105  7106          CLL RTL /MULTIPLY BY FOUR AND
 2103 07106  5275          JMP EXIT        /       GO CREATE SPACE
 2104 07107  1325  CRLF,   TAD INITX       /"CARRIAGE RETURN" RESETS X
 2105 07110  3327          DCA XVALUE      /       TO ITS ORIGINAL VALUE
 2106 07111  1332  LF,     TAD YINCR       /"LINE FEED"
 2107 07112  7106          CLL RTL /       DECREMENTS THE
 2108 07113  7145          CLL CIA RAL     /       Y-VALUE BY
 2109 07114  1330          TAD YVALUE      /       EIGHT SCALE
 2110 07115  3330          DCA YVALUE      /       STEPS
 2111 07116  5616          JMP I CHAR      /EXIT FROM CHAR
 2112 07117  1325  RESET,  TAD INITX       /"RESET" RESETS
 2113 07120  3327          DCA XVALUE      /       X AND Y TO
 2114 07121  1326          TAD INITY       /       THEIR ORIGINAL
 2115 07122  5315          JMP RESET-2     /       VALUES
 2116 07123  2216  TERM,   ISZ CHAR        /TERMINATE CODE CAUSES
 2117 07124  5616          JMP I CHAR      /       EXIT TO P+2
 2118              /
 2119 07125  0000  INITX,  0       /INITIAL X-VALUE
 2120 07126  0327  INITY,  327     /INITIAL Y-VALUE
 2121 07127  0000  XVALUE, 0       /CURRENT X-VALUE
 2122 07130  0000  YVALUE, 0       /CURRENT Y-VALUE
 2123 07131  0006  XINCR,  6       /BASIC X INCREMENT VALUE
 2124 07132  0010  YINCR,  10      /BASIC Y INCREMENT VALUE
 2125 07133  0000  YTEMP,  0       /TEMPORARY Y-VALUE
 2126 07134  0000  CURPLT, 0       /CURRENT PLOT BITS
 2127 07135  0000  ADDR,   0       /CURRENT STRING ADDRESS
 2128 07136  0000  COUNT6, 0       /6-BIT COUNTER
 2129 07137  0000  COUNT2, 0       /2-WORD COUNTER
 2130 07140  7772  KM6,    -6      /CONSTANT FOR COUNT6
 2131 07141  0077  K77,    77      /CHARACTER CODE MASK
 2132 07142  0000  POINT,  0       /TABLE POINTER
 2133              /
 2134              
 2135              /
 2136 07143  7144  TABLE,  .+1     /TABLE BASE ADDRESS
 2137 07144  0000          0       /SPECIAL CHARACTER (00)
 2138 07145  7123          TERM    /TERMINATION CODE
 2139 07146  7611          7611    / A
 2140 07147  1176          1176
 2141 07150  7745          7745    / B
 2142 07151  4532          4532
 2143 07152  3641          3641    / C
 2144 07153  4122          4122
 2145 07154  7741          7741    / D
 2146 07155  4136          4136
 2147 07156  7745          7745    / E
 2148 07157  4541          4541
 2149 07160  7705          7705    / F
 2150 07161  0501          501



      /       SPACE WAR                                                  Page 44


 2151 07162  7741          7741    / G
 2152 07163  5173          5173
 2153 07164  7710          7710    / H
 2154 07165  1077          1077
 2155 07166  4177          4177    / I
 2156 07167  4100          4100
 2157 07170  2040          2040    / J
 2158 07171  4037          4037
 2159 07172  7714          7714    / K
 2160 07173  2241          2241
 2161 07174  7740          7740    / L
 2162 07175  4040          4040
 2163 07176  7702          7702    / M
 2164 07177  0277          277
 2165 07200  7706          7706    / N
 2166 07201  3077          3077
 2167 07202  7741          7741    / O
 2168 07203  4177          4177
 2169 07204  7705          7705    / P
 2170 07205  0502          502
 2171 07206  3641          3641    / Q
 2172 07207  6176          6176
 2173 07210  7715          7715    / R
 2174 07211  2542          2542
 2175 07212  2245          2245    / S
 2176 07213  5122          5122
 2177 07214  0177          177     / T
 2178 07215  0100          100
 2179 07216  3740          3740    / U
 2180 07217  4037          4037
 2181 07220  1720          1720    / V
 2182 07221  4037          4037
 2183 07222  7730          7730    / W
 2184 07223  3077          3077
 2185 07224  4136          4136    / X
 2186 07225  3641          3641
 2187 07226  0374          374     / Y
 2188 07227  7403          7403
 2189 07230  6151          6151    / Z
 2190 07231  4543          4543
 2191 07232  7741          7741    / [
 2192 07233  0000          0
 2193 07234  0204          204     / \
 2194 07235  1020          1020
 2195 07236  4177          4177    / ]
 2196 07237  0000          0
 2197 07240  0436          436     / ^
 2198 07241  0400          400
 2199 07242  0000          0       /SPECIAL CHARACTER (37)
 2200 07243  7117          RESET   /RESET



      /       SPACE WAR                                                  Page 45


 2201 07244  0000          0       /SPECIAL CHARACTER (40)
 2202 07245  7104          SPACE   /SPACE
 2203 07246  5600          5600    / !
 2204 07247  0000          0
 2205 07250  0303          303     / "
 2206 07251  0000          0
 2207 07252  1477          1477    / #
 2208 07253  7714          7714
 2209 07254  2277          2277    / MARKER
 2210 07255  2200          2200
 2211 07256  2313          2313    / %
 2212 07257  6462          6462
 2213 07260  7777          7777    / BLOCK
 2214 07261  7777          7777
 2215 07262  0300          300     / '
 2216 07263  0000          0
 2217 07264  3641          3641    / (
 2218 07265  0000          0
 2219 07266  4136          4136    / )
 2220 07267  0000          0
 2221 07270  4040          4040    / UNDERSCORE (52)
 2222 07271  4040          4040
 2223 07272  1034          1034    / +
 2224 07273  1000          1000
 2225 07274  0000          0       /SPECIAL CHARACTER (54)
 2226 07275  7111          LF      /LINE FEED
 2227 07276  1010          1010    / -
 2228 07277  1000          1000
 2229 07300  4000          4000    / .
 2230 07301  0000          0
 2231 07302  2010          2010    / /
 2232 07303  0402          402
 2233 07304  3641          3641    / 0
 2234 07305  4136          4136
 2235 07306  4442          4442    / 1
 2236 07307  7740          7740
 2237 07310  4261          4261    / 2
 2238 07311  5146          5146
 2239 07312  2145          2145    / 3
 2240 07313  5321          5321
 2241 07314  1710          1710    / 4
 2242 07315  1077          1077
 2243 07316  4745          4745    / 5
 2244 07317  4531          4531
 2245 07320  7750          7750    / 6
 2246 07321  5070          5070
 2247 07322  6111          6111    / 7
 2248 07323  0503          503
 2249 07324  2255          2255    / 8
 2250 07325  5522          5522



      /       SPACE WAR                                                  Page 46


 2251 07326  0705          705     / 9
 2252 07327  0577          577
 2253 07330  2400          2400    / :
 2254 07331  0000          0
 2255 07332  0000          0       /SPECIAL CHARACTER (73)
 2256 07333  7107          CRLF    /CARRIAGE RETURN; LINE FEED
 2257 07334  1024          1024    / >
 2258 07335  4200          4200
 2259 07336  1212          1212    / =
 2260 07337  1200          1200
 2261 07340  4224          4224    / <
 2262 07341  1000          1000
 2263 07342  0255          255     / ?
 2264 07343  0300          300
 2265              
 2266              
 2267              /
 2268              /       HERE FOLLOW THE PACKED ASCII TEXTS FOR THE VARIOUS
 2269              /       VICTORY MESSAGES.  PERSONS ADVENTEROUS TO FIND THIS MIGH CARE
 2270              /       TO TOGGLE IN SOME CUTE LITTLE MESSAGES OF THEIR OWN.
 2271              /
 2272              
 2273 07344  3773  MESS0,  3773
 2274 07345  7340  MESS5,  7340
 2275 07346  4040          4040
 2276 07347  4040          4040
 2277 07350  4000          4000
 2278              
 2279 07351  1716  MESS1,  1716
 2280 07352  0500          0500
 2281              
 2282 07353  2427  MESS2,  2427
 2283 07354  1700          1700
 2284              
 2285 07355  2711  MESS3,  2711
 2286 07356  1623          1623
 2287 07357  4100          4100
 2288              
 2289 07360  1617  MESS4,  1617
 2290 07361  0217          0217
 2291 07362  0431          0431
 2292 07363  0000          0000
 2293              
 2294               
 2295        7400          *7400
 2296              
 2297 07400  0000  DISBUF, 0
 2298              
 2299              /       THE DISPLAY BUFFERS BEGIN HERE AND EXTEND UP SOMEWHERE TO
 2300              /       AROUND 7575 OR SO.



      /       SPACE WAR                                                  Page 47


 2301              /
 2302              /
 2303              /
 2304              /
 2305              / 
 2306              
 2307              $

      No detected errors
      No links generated
